GAS LISTING /tmp/ccihkUuv.s 			page 1


   1              		.file	"IOBuffer.cpp"
   2              		.option pic
   3              		.option norelax
   4              		.text
   5              	.Ltext0:
   6              		.align	2
   7              		.globl	_ZN8IOBuffer3putEc
   9              	_ZN8IOBuffer3putEc:
  10              	.LFB50:
  11              		.file 1 "src/IOBuffer.cpp"
   1:src/IOBuffer.cpp **** //
   2:src/IOBuffer.cpp **** // Created by os on 5/16/24.
   3:src/IOBuffer.cpp **** //
   4:src/IOBuffer.cpp **** #include "../h/IOBuffer.hpp"
   5:src/IOBuffer.cpp **** #include "../test/printing.hpp"
   6:src/IOBuffer.cpp **** void IOBuffer::put(char c) {
  12              		.loc 1 6 28
  13              		.cfi_startproc
  14              	.LVL0:
  15 0000 130101FE 		addi	sp,sp,-32
  16              		.cfi_def_cfa_offset 32
  17 0004 233C1100 		sd	ra,24(sp)
  18 0008 23388100 		sd	s0,16(sp)
  19 000c 23349100 		sd	s1,8(sp)
  20 0010 23302101 		sd	s2,0(sp)
  21              		.cfi_offset 1, -8
  22              		.cfi_offset 8, -16
  23              		.cfi_offset 9, -24
  24              		.cfi_offset 18, -32
  25 0014 13040102 		addi	s0,sp,32
  26              		.cfi_def_cfa 8, 0
  27 0018 93040500 		mv	s1,a0
  28 001c 13890500 		mv	s2,a1
   7:src/IOBuffer.cpp ****     spaceAvailable->wait();
  29              		.loc 1 7 5
  30              		.loc 1 7 25 is_stmt 0
  31 0020 03350502 		ld	a0,32(a0)
  32              	.LVL1:
  33 0024 97000000 		call	_ZN10kSemaphore4waitEv@plt
  33      E7800000 
  34              	.LVL2:
   8:src/IOBuffer.cpp ****     buffer[tail] = c;
  35              		.loc 1 8 5 is_stmt 1
  36 002c 83B70400 		ld	a5,0(s1)
  37              		.loc 1 8 12 is_stmt 0
  38 0030 03B70401 		ld	a4,16(s1)
  39              		.loc 1 8 16
  40 0034 B387E700 		add	a5,a5,a4
  41              		.loc 1 8 18
  42 0038 23802701 		sb	s2,0(a5)
   9:src/IOBuffer.cpp ****     tail = (tail + 1) % size;
  43              		.loc 1 9 5 is_stmt 1
  44              		.loc 1 9 13 is_stmt 0
  45 003c 83B70401 		ld	a5,16(s1)
  46              		.loc 1 9 18
  47 0040 93871700 		addi	a5,a5,1
  48              		.loc 1 9 25
GAS LISTING /tmp/ccihkUuv.s 			page 2


  49 0044 03B78401 		ld	a4,24(s1)
  50              		.loc 1 9 23
  51 0048 B3F7E702 		remu	a5,a5,a4
  52              		.loc 1 9 10
  53 004c 23B8F400 		sd	a5,16(s1)
  10:src/IOBuffer.cpp ****     itemAvailable->signal();
  54              		.loc 1 10 5 is_stmt 1
  55              		.loc 1 10 26 is_stmt 0
  56 0050 03B58402 		ld	a0,40(s1)
  57 0054 97000000 		call	_ZN10kSemaphore6signalEv@plt
  57      E7800000 
  58              	.LVL3:
  11:src/IOBuffer.cpp **** }
  59              		.loc 1 11 1
  60 005c 83308101 		ld	ra,24(sp)
  61              		.cfi_restore 1
  62 0060 03340101 		ld	s0,16(sp)
  63              		.cfi_restore 8
  64              		.cfi_def_cfa 2, 32
  65 0064 83348100 		ld	s1,8(sp)
  66              		.cfi_restore 9
  67              	.LVL4:
  68 0068 03390100 		ld	s2,0(sp)
  69              		.cfi_restore 18
  70 006c 13010102 		addi	sp,sp,32
  71              		.cfi_def_cfa_offset 0
  72 0070 67800000 		jr	ra
  73              		.cfi_endproc
  74              	.LFE50:
  76              		.align	2
  77              		.globl	_ZN8IOBuffer3getEv
  79              	_ZN8IOBuffer3getEv:
  80              	.LFB51:
  12:src/IOBuffer.cpp **** 
  13:src/IOBuffer.cpp **** char IOBuffer::get() {
  81              		.loc 1 13 22 is_stmt 1
  82              		.cfi_startproc
  83              	.LVL5:
  84 0074 130101FD 		addi	sp,sp,-48
  85              		.cfi_def_cfa_offset 48
  86 0078 23341102 		sd	ra,40(sp)
  87 007c 23308102 		sd	s0,32(sp)
  88 0080 233C9100 		sd	s1,24(sp)
  89              		.cfi_offset 1, -8
  90              		.cfi_offset 8, -16
  91              		.cfi_offset 9, -24
  92 0084 13040103 		addi	s0,sp,48
  93              		.cfi_def_cfa 8, 0
  94 0088 93040500 		mv	s1,a0
  14:src/IOBuffer.cpp ****     itemAvailable->wait();
  95              		.loc 1 14 5
  96              		.loc 1 14 24 is_stmt 0
  97 008c 03358502 		ld	a0,40(a0)
  98              	.LVL6:
  99 0090 97000000 		call	_ZN10kSemaphore4waitEv@plt
  99      E7800000 
 100              	.LVL7:
GAS LISTING /tmp/ccihkUuv.s 			page 3


  15:src/IOBuffer.cpp ****     char volatile c = buffer[head];
 101              		.loc 1 15 5 is_stmt 1
 102              		.loc 1 15 23 is_stmt 0
 103 0098 03B70400 		ld	a4,0(s1)
 104              		.loc 1 15 30
 105 009c 83B78400 		ld	a5,8(s1)
 106              		.loc 1 15 34
 107 00a0 3307F700 		add	a4,a4,a5
 108 00a4 03470700 		lbu	a4,0(a4)
 109              		.loc 1 15 19
 110 00a8 A30FE4FC 		sb	a4,-33(s0)
  16:src/IOBuffer.cpp ****     head = (head + 1) % size;
 111              		.loc 1 16 5 is_stmt 1
 112              		.loc 1 16 18 is_stmt 0
 113 00ac 93871700 		addi	a5,a5,1
 114              		.loc 1 16 25
 115 00b0 03B78401 		ld	a4,24(s1)
 116              		.loc 1 16 23
 117 00b4 B3F7E702 		remu	a5,a5,a4
 118              		.loc 1 16 10
 119 00b8 23B4F400 		sd	a5,8(s1)
  17:src/IOBuffer.cpp ****     spaceAvailable->signal();
 120              		.loc 1 17 5 is_stmt 1
 121              		.loc 1 17 27 is_stmt 0
 122 00bc 03B50402 		ld	a0,32(s1)
 123 00c0 97000000 		call	_ZN10kSemaphore6signalEv@plt
 123      E7800000 
 124              	.LVL8:
  18:src/IOBuffer.cpp ****     return c;
 125              		.loc 1 18 5 is_stmt 1
 126              		.loc 1 18 12 is_stmt 0
 127 00c8 0345F4FD 		lbu	a0,-33(s0)
  19:src/IOBuffer.cpp **** }
 128              		.loc 1 19 1
 129 00cc 1375F50F 		andi	a0,a0,0xff
 130 00d0 83308102 		ld	ra,40(sp)
 131              		.cfi_restore 1
 132 00d4 03340102 		ld	s0,32(sp)
 133              		.cfi_restore 8
 134              		.cfi_def_cfa 2, 48
 135 00d8 83348101 		ld	s1,24(sp)
 136              		.cfi_restore 9
 137              	.LVL9:
 138 00dc 13010103 		addi	sp,sp,48
 139              		.cfi_def_cfa_offset 0
 140 00e0 67800000 		jr	ra
 141              		.cfi_endproc
 142              	.LFE51:
 144              	.Letext0:
 145              		.file 2 "src/../h/../lib/hw.h"
 146              		.file 3 "src/../h/tcb.hpp"
 147              		.file 4 "src/../h/kSemaphore.hpp"
 148              		.file 5 "src/../h/IOBuffer.hpp"
 149              		.file 6 "src/../h/../test/../h/syscall_c.hpp"
GAS LISTING /tmp/ccihkUuv.s 			page 4

