GAS LISTING /tmp/ccUxVAAr.s 			page 1


   1              		.file	"kConsole.cpp"
   2              		.option pic
   3              		.option norelax
   4              		.text
   5              	.Ltext0:
   6              		.align	2
   7              		.globl	_ZN8kConsole4getcEv
   9              	_ZN8kConsole4getcEv:
  10              	.LFB56:
  11              		.file 1 "src/kConsole.cpp"
   1:src/kConsole.cpp **** #include "../h/kConsole.hpp"
   2:src/kConsole.cpp **** 
   3:src/kConsole.cpp **** 
   4:src/kConsole.cpp **** IOBuffer* kConsole::input = nullptr;
   5:src/kConsole.cpp **** IOBuffer* kConsole::output = nullptr;
   6:src/kConsole.cpp **** 
   7:src/kConsole.cpp **** char kConsole::getc() {
  12              		.loc 1 7 23
  13              		.cfi_startproc
  14 0000 130101FF 		addi	sp,sp,-16
  15              		.cfi_def_cfa_offset 16
  16 0004 23341100 		sd	ra,8(sp)
  17 0008 23308100 		sd	s0,0(sp)
  18              		.cfi_offset 1, -8
  19              		.cfi_offset 8, -16
  20 000c 13040101 		addi	s0,sp,16
  21              		.cfi_def_cfa 8, 0
   8:src/kConsole.cpp ****     //flush input
   9:src/kConsole.cpp ****     return input->get();
  22              		.loc 1 9 5
  23              		.loc 1 9 22 is_stmt 0
  24 0010 17050000 		ld	a0,.LANCHOR0
  24      03350500 
  25 0018 97000000 		call	_ZN8IOBuffer3getEv@plt
  25      E7800000 
  26              	.LVL0:
  10:src/kConsole.cpp **** }
  27              		.loc 1 10 1
  28 0020 83308100 		ld	ra,8(sp)
  29              		.cfi_restore 1
  30 0024 03340100 		ld	s0,0(sp)
  31              		.cfi_restore 8
  32              		.cfi_def_cfa 2, 16
  33 0028 13010101 		addi	sp,sp,16
  34              		.cfi_def_cfa_offset 0
  35 002c 67800000 		jr	ra
  36              		.cfi_endproc
  37              	.LFE56:
  39              		.align	2
  40              		.globl	_ZN8kConsole4putcEc
  42              	_ZN8kConsole4putcEc:
  43              	.LFB57:
  11:src/kConsole.cpp **** 
  12:src/kConsole.cpp **** void kConsole::putc(char c) {
  44              		.loc 1 12 29 is_stmt 1
  45              		.cfi_startproc
  46              	.LVL1:
GAS LISTING /tmp/ccUxVAAr.s 			page 2


  47 0030 130101FF 		addi	sp,sp,-16
  48              		.cfi_def_cfa_offset 16
  49 0034 23341100 		sd	ra,8(sp)
  50 0038 23308100 		sd	s0,0(sp)
  51              		.cfi_offset 1, -8
  52              		.cfi_offset 8, -16
  53 003c 13040101 		addi	s0,sp,16
  54              		.cfi_def_cfa 8, 0
  55 0040 93050500 		mv	a1,a0
  13:src/kConsole.cpp ****     output->put(c);
  56              		.loc 1 13 5
  57              		.loc 1 13 16 is_stmt 0
  58 0044 17050000 		ld	a0,.LANCHOR0+8
  58      03350500 
  59              	.LVL2:
  60 004c 97000000 		call	_ZN8IOBuffer3putEc@plt
  60      E7800000 
  61              	.LVL3:
  14:src/kConsole.cpp ****     //flush output
  15:src/kConsole.cpp **** }
  62              		.loc 1 15 1
  63 0054 83308100 		ld	ra,8(sp)
  64              		.cfi_restore 1
  65 0058 03340100 		ld	s0,0(sp)
  66              		.cfi_restore 8
  67              		.cfi_def_cfa 2, 16
  68 005c 13010101 		addi	sp,sp,16
  69              		.cfi_def_cfa_offset 0
  70 0060 67800000 		jr	ra
  71              		.cfi_endproc
  72              	.LFE57:
  74              		.align	2
  75              		.globl	_ZN8kConsole4initEv
  77              	_ZN8kConsole4initEv:
  78              	.LFB58:
  16:src/kConsole.cpp **** 
  17:src/kConsole.cpp **** void  kConsole::init() {
  79              		.loc 1 17 24 is_stmt 1
  80              		.cfi_startproc
  81              		.cfi_personality 0x9b,DW.ref.__gxx_personality_v0
  82              		.cfi_lsda 0x1b,.LLSDA58
  83 0064 130101FE 		addi	sp,sp,-32
  84              		.cfi_def_cfa_offset 32
  85 0068 233C1100 		sd	ra,24(sp)
  86 006c 23388100 		sd	s0,16(sp)
  87 0070 23349100 		sd	s1,8(sp)
  88 0074 23302101 		sd	s2,0(sp)
  89              		.cfi_offset 1, -8
  90              		.cfi_offset 8, -16
  91              		.cfi_offset 9, -24
  92              		.cfi_offset 18, -32
  93 0078 13040102 		addi	s0,sp,32
  94              		.cfi_def_cfa 8, 0
  18:src/kConsole.cpp ****     input =  new IOBuffer(256);
  95              		.loc 1 18 5
  96              	.LVL4:
  97              	.LBB24:
GAS LISTING /tmp/ccUxVAAr.s 			page 3


  98              	.LBB25:
  99              		.file 2 "src/../h/IOBuffer.hpp"
   1:src/../h/IOBuffer.hpp **** //
   2:src/../h/IOBuffer.hpp **** // Created by os on 5/16/24.
   3:src/../h/IOBuffer.hpp **** //
   4:src/../h/IOBuffer.hpp **** 
   5:src/../h/IOBuffer.hpp **** #ifndef PROJECT_BASE_IOBUFFER_HPP
   6:src/../h/IOBuffer.hpp **** #define PROJECT_BASE_IOBUFFER_HPP
   7:src/../h/IOBuffer.hpp **** #include "MemoryAllocator.hpp"
   8:src/../h/IOBuffer.hpp **** #include "../lib/hw.h"
   9:src/../h/IOBuffer.hpp **** #include "kSemaphore.hpp"
  10:src/../h/IOBuffer.hpp **** 
  11:src/../h/IOBuffer.hpp **** class IOBuffer{
  12:src/../h/IOBuffer.hpp **** private:
  13:src/../h/IOBuffer.hpp ****     char *buffer;
  14:src/../h/IOBuffer.hpp ****     size_t head;
  15:src/../h/IOBuffer.hpp ****     size_t tail;
  16:src/../h/IOBuffer.hpp ****     size_t size;
  17:src/../h/IOBuffer.hpp ****     kSemaphore *spaceAvailable;
  18:src/../h/IOBuffer.hpp ****     kSemaphore *itemAvailable;
  19:src/../h/IOBuffer.hpp **** public:
  20:src/../h/IOBuffer.hpp ****     IOBuffer(int capacity):head(0),tail(0),size(capacity){
  21:src/../h/IOBuffer.hpp ****         buffer = (char *)mem_alloc(capacity* sizeof(char));
  22:src/../h/IOBuffer.hpp ****         sem_open(&this->spaceAvailable,capacity);
  23:src/../h/IOBuffer.hpp ****         sem_open(&this->itemAvailable,0);
  24:src/../h/IOBuffer.hpp ****     }
  25:src/../h/IOBuffer.hpp **** 
  26:src/../h/IOBuffer.hpp ****     ~IOBuffer(){
  27:src/../h/IOBuffer.hpp ****         delete[] buffer;
  28:src/../h/IOBuffer.hpp ****     }
  29:src/../h/IOBuffer.hpp ****     void put(char c);
  30:src/../h/IOBuffer.hpp **** 
  31:src/../h/IOBuffer.hpp ****     char get();
  32:src/../h/IOBuffer.hpp **** 
  33:src/../h/IOBuffer.hpp ****     bool isFull() const { return (tail + 1) % size == head; }
  34:src/../h/IOBuffer.hpp **** 
  35:src/../h/IOBuffer.hpp ****     bool isEmpty() const { return head == tail; }
  36:src/../h/IOBuffer.hpp **** 
  37:src/../h/IOBuffer.hpp ****     void *operator new(size_t n){ return MemoryAllocator::mem_alloc(n); }
 100              		.loc 2 37 35
 101              		.loc 2 37 68 is_stmt 0
 102 007c 13050003 		li	a0,48
 103              	.LEHB0:
 104 0080 97000000 		call	_ZN15MemoryAllocator9mem_allocEm@plt
 104      E7800000 
 105              	.LVL5:
 106              	.LEHE0:
 107 0088 93040500 		mv	s1,a0
 108              	.LVL6:
 109              	.LBE25:
 110              	.LBE24:
 111              	.LBB26:
 112              	.LBB27:
 113              	.LBB28:
  20:src/../h/IOBuffer.hpp ****         buffer = (char *)mem_alloc(capacity* sizeof(char));
 114              		.loc 2 20 57
 115 008c 23340500 		sd	zero,8(a0)
GAS LISTING /tmp/ccUxVAAr.s 			page 4


 116 0090 23380500 		sd	zero,16(a0)
 117 0094 93070010 		li	a5,256
 118 0098 233CF500 		sd	a5,24(a0)
  21:src/../h/IOBuffer.hpp ****         sem_open(&this->spaceAvailable,capacity);
 119              		.loc 2 21 9 is_stmt 1
  21:src/../h/IOBuffer.hpp ****         sem_open(&this->spaceAvailable,capacity);
 120              		.loc 2 21 35 is_stmt 0
 121 009c 13050010 		li	a0,256
 122              	.LEHB1:
 123 00a0 97000000 		call	_Z9mem_allocm@plt
 123      E7800000 
 124              	.LVL7:
  21:src/../h/IOBuffer.hpp ****         sem_open(&this->spaceAvailable,capacity);
 125              		.loc 2 21 16
 126 00a8 23B0A400 		sd	a0,0(s1)
  22:src/../h/IOBuffer.hpp ****         sem_open(&this->itemAvailable,0);
 127              		.loc 2 22 9 is_stmt 1
  22:src/../h/IOBuffer.hpp ****         sem_open(&this->itemAvailable,0);
 128              		.loc 2 22 17 is_stmt 0
 129 00ac 93050010 		li	a1,256
 130 00b0 13850402 		addi	a0,s1,32
 131 00b4 97000000 		call	_Z8sem_openPP10kSemaphorej@plt
 131      E7800000 
 132              	.LVL8:
  23:src/../h/IOBuffer.hpp ****     }
 133              		.loc 2 23 9 is_stmt 1
  23:src/../h/IOBuffer.hpp ****     }
 134              		.loc 2 23 17 is_stmt 0
 135 00bc 93050000 		li	a1,0
 136 00c0 13858402 		addi	a0,s1,40
 137 00c4 97000000 		call	_Z8sem_openPP10kSemaphorej@plt
 137      E7800000 
 138              	.LVL9:
 139              	.LEHE1:
 140              	.LBE28:
 141              	.LBE27:
 142              	.LBE26:
 143              		.loc 1 18 11 discriminator 2
 144 00cc 97070000 		sd	s1,.LANCHOR0,a5
 144      23B09700 
  19:src/kConsole.cpp ****     output = new IOBuffer(256);
 145              		.loc 1 19 5 is_stmt 1 discriminator 2
 146              	.LVL10:
 147              	.LBB29:
 148              	.LBB30:
 149              		.loc 2 37 35 discriminator 2
 150              		.loc 2 37 68 is_stmt 0 discriminator 2
 151 00d4 13050003 		li	a0,48
 152              	.LEHB2:
 153 00d8 97000000 		call	_ZN15MemoryAllocator9mem_allocEm@plt
 153      E7800000 
 154              	.LVL11:
 155              	.LEHE2:
 156 00e0 93040500 		mv	s1,a0
 157              	.LVL12:
 158              	.LBE30:
 159              	.LBE29:
GAS LISTING /tmp/ccUxVAAr.s 			page 5


 160              	.LBB31:
 161              	.LBB32:
 162              	.LBB33:
  20:src/../h/IOBuffer.hpp ****         buffer = (char *)mem_alloc(capacity* sizeof(char));
 163              		.loc 2 20 57 discriminator 2
 164 00e4 23340500 		sd	zero,8(a0)
 165 00e8 23380500 		sd	zero,16(a0)
 166 00ec 93070010 		li	a5,256
 167 00f0 233CF500 		sd	a5,24(a0)
  21:src/../h/IOBuffer.hpp ****         sem_open(&this->spaceAvailable,capacity);
 168              		.loc 2 21 9 is_stmt 1 discriminator 2
  21:src/../h/IOBuffer.hpp ****         sem_open(&this->spaceAvailable,capacity);
 169              		.loc 2 21 35 is_stmt 0 discriminator 2
 170 00f4 13050010 		li	a0,256
 171              	.LEHB3:
 172 00f8 97000000 		call	_Z9mem_allocm@plt
 172      E7800000 
 173              	.LVL13:
  21:src/../h/IOBuffer.hpp ****         sem_open(&this->spaceAvailable,capacity);
 174              		.loc 2 21 16 discriminator 2
 175 0100 23B0A400 		sd	a0,0(s1)
  22:src/../h/IOBuffer.hpp ****         sem_open(&this->itemAvailable,0);
 176              		.loc 2 22 9 is_stmt 1 discriminator 2
  22:src/../h/IOBuffer.hpp ****         sem_open(&this->itemAvailable,0);
 177              		.loc 2 22 17 is_stmt 0 discriminator 2
 178 0104 93050010 		li	a1,256
 179 0108 13850402 		addi	a0,s1,32
 180 010c 97000000 		call	_Z8sem_openPP10kSemaphorej@plt
 180      E7800000 
 181              	.LVL14:
  23:src/../h/IOBuffer.hpp ****     }
 182              		.loc 2 23 9 is_stmt 1
  23:src/../h/IOBuffer.hpp ****     }
 183              		.loc 2 23 17 is_stmt 0
 184 0114 93050000 		li	a1,0
 185 0118 13858402 		addi	a0,s1,40
 186 011c 97000000 		call	_Z8sem_openPP10kSemaphorej@plt
 186      E7800000 
 187              	.LVL15:
 188              	.LEHE3:
 189              	.LBE33:
 190              	.LBE32:
 191              	.LBE31:
 192              		.loc 1 19 12 discriminator 2
 193 0124 97070000 		sd	s1,.LANCHOR0+8,a5
 193      23B09700 
  20:src/kConsole.cpp **** }
 194              		.loc 1 20 1 discriminator 2
 195 012c 83308101 		ld	ra,24(sp)
 196              		.cfi_remember_state
 197              		.cfi_restore 1
 198 0130 03340101 		ld	s0,16(sp)
 199              		.cfi_restore 8
 200              		.cfi_def_cfa 2, 32
 201 0134 83348100 		ld	s1,8(sp)
 202              		.cfi_restore 9
 203 0138 03390100 		ld	s2,0(sp)
GAS LISTING /tmp/ccUxVAAr.s 			page 6


 204              		.cfi_restore 18
 205 013c 13010102 		addi	sp,sp,32
 206              		.cfi_def_cfa_offset 0
 207 0140 67800000 		jr	ra
 208              	.LVL16:
 209              	.L8:
 210              		.cfi_restore_state
 211 0144 13090500 		mv	s2,a0
 212              	.LVL17:
 213              	.LBB34:
 214              	.LBB35:
  38:src/../h/IOBuffer.hpp **** 
  39:src/../h/IOBuffer.hpp ****     void *operator new[](size_t n){ return MemoryAllocator::mem_alloc(n); }
  40:src/../h/IOBuffer.hpp **** 
  41:src/../h/IOBuffer.hpp ****     void operator delete(void *p)  { MemoryAllocator::mem_free(p); }
 215              		.loc 2 41 38 is_stmt 1
 216              		.loc 2 41 63 is_stmt 0
 217 0148 13850400 		mv	a0,s1
 218 014c 97000000 		call	_ZN15MemoryAllocator8mem_freeEPv@plt
 218      E7800000 
 219              	.LVL18:
 220 0154 13050900 		mv	a0,s2
 221              	.LEHB4:
 222 0158 97000000 		call	_Unwind_Resume@plt
 222      E7800000 
 223              	.LVL19:
 224              	.LEHE4:
 225              	.L9:
 226 0160 13090500 		mv	s2,a0
 227              	.LVL20:
 228              	.LBE35:
 229              	.LBE34:
 230              	.LBB36:
 231              	.LBB37:
 232              		.loc 2 41 38 is_stmt 1
 233              		.loc 2 41 63 is_stmt 0
 234 0164 13850400 		mv	a0,s1
 235 0168 97000000 		call	_ZN15MemoryAllocator8mem_freeEPv@plt
 235      E7800000 
 236              	.LVL21:
 237 0170 13050900 		mv	a0,s2
 238              	.LEHB5:
 239 0174 97000000 		call	_Unwind_Resume@plt
 239      E7800000 
 240              	.LVL22:
 241              	.LEHE5:
 242              	.LBE37:
 243              	.LBE36:
 244              		.cfi_endproc
 245              	.LFE58:
 246              		.globl	__gxx_personality_v0
 247              		.section	.gcc_except_table,"a",@progbits
 248              	.LLSDA58:
 249 0000 FF       		.byte	0xff
 250 0001 FF       		.byte	0xff
 251 0002 03       		.byte	0x3
 252 0003 4E       		.byte	0x4e
GAS LISTING /tmp/ccUxVAAr.s 			page 7


 253 0004 00000000 		.4byte	.LEHB0-.LFB58
 254 0008 00000000 		.4byte	.LEHE0-.LEHB0
 255 000c 00000000 		.4byte	0
 256 0010 00       		.byte	0
 257 0011 00000000 		.4byte	.LEHB1-.LFB58
 258 0015 00000000 		.4byte	.LEHE1-.LEHB1
 259 0019 00000000 		.4byte	.L8-.LFB58
 260 001d 00       		.byte	0
 261 001e 00000000 		.4byte	.LEHB2-.LFB58
 262 0022 00000000 		.4byte	.LEHE2-.LEHB2
 263 0026 00000000 		.4byte	0
 264 002a 00       		.byte	0
 265 002b 00000000 		.4byte	.LEHB3-.LFB58
 266 002f 00000000 		.4byte	.LEHE3-.LEHB3
 267 0033 00000000 		.4byte	.L9-.LFB58
 268 0037 00       		.byte	0
 269 0038 00000000 		.4byte	.LEHB4-.LFB58
 270 003c 00000000 		.4byte	.LEHE4-.LEHB4
 271 0040 00000000 		.4byte	0
 272 0044 00       		.byte	0
 273 0045 00000000 		.4byte	.LEHB5-.LFB58
 274 0049 00000000 		.4byte	.LEHE5-.LEHB5
 275 004d 00000000 		.4byte	0
 276 0051 00       		.byte	0
 277              		.text
 279              		.globl	_ZN8kConsole6outputE
 280              		.globl	_ZN8kConsole5inputE
 281              		.bss
 282              		.align	3
 283              		.set	.LANCHOR0,. + 0
 286              	_ZN8kConsole5inputE:
 287 0000 00000000 		.zero	8
 287      00000000 
 290              	_ZN8kConsole6outputE:
 291 0008 00000000 		.zero	8
 291      00000000 
 292              		.text
 293              	.Letext0:
 294              		.file 3 "src/../h/../lib/hw.h"
 295              		.file 4 "src/../h/MemoryAllocator.hpp"
 296              		.file 5 "src/../h/tcb.hpp"
 297              		.file 6 "src/../h/kSemaphore.hpp"
 298              		.file 7 "src/../h/kConsole.hpp"
 299              		.file 8 "src/../h/../test/../h/syscall_c.hpp"
 3193              		.align	3
 3196              	DW.ref.__gxx_personality_v0:
 3197 0000 00000000 		.dword	__gxx_personality_v0
 3197      00000000 
 3198              		.ident	"GCC: (Ubuntu 9.4.0-1ubuntu1~20.04) 9.4.0"
 3199              		.section	.note.GNU-stack,"",@progbits
GAS LISTING /tmp/ccUxVAAr.s 			page 8

