GAS LISTING /tmp/ccxaT0Pe.s 			page 1


   1              		.file	"Scheduler.cpp"
   2              		.option pic
   3              		.option norelax
   4              		.text
   5              	.Ltext0:
   6              		.align	2
   7              		.globl	_ZN9Scheduler3getEv
   9              	_ZN9Scheduler3getEv:
  10              	.LFB29:
  11              		.file 1 "src/Scheduler.cpp"
   1:src/Scheduler.cpp **** #include "../h/Scheduler.hpp"
   2:src/Scheduler.cpp **** #include "../h/tcb.hpp"
   3:src/Scheduler.cpp **** 
   4:src/Scheduler.cpp **** 
   5:src/Scheduler.cpp **** TCB* Scheduler::head = nullptr;
   6:src/Scheduler.cpp **** TCB* Scheduler::tail = nullptr;
   7:src/Scheduler.cpp **** 
   8:src/Scheduler.cpp **** 
   9:src/Scheduler.cpp **** 
  10:src/Scheduler.cpp **** TCB *Scheduler::get()
  11:src/Scheduler.cpp **** {
  12              		.loc 1 11 1
  13              		.cfi_startproc
  14 0000 130101FF 		addi	sp,sp,-16
  15              		.cfi_def_cfa_offset 16
  16 0004 23348100 		sd	s0,8(sp)
  17              		.cfi_offset 8, -8
  18 0008 13040101 		addi	s0,sp,16
  19              		.cfi_def_cfa 8, 0
  12:src/Scheduler.cpp ****     if (!head) { return nullptr; }
  20              		.loc 1 12 5
  21              		.loc 1 12 9 is_stmt 0
  22 000c 17050000 		ld	a0,.LANCHOR0
  22      03350500 
  23              		.loc 1 12 5
  24 0014 630E0500 		beqz	a0,.L1
  13:src/Scheduler.cpp **** 
  14:src/Scheduler.cpp ****     TCB *elem = head;
  25              		.loc 1 14 5 is_stmt 1
  26              	.LVL0:
  15:src/Scheduler.cpp ****     head = head->schedulerNext;
  27              		.loc 1 15 5
  28              		.loc 1 15 18 is_stmt 0
  29 0018 83370505 		ld	a5,80(a0)
  30              		.loc 1 15 10
  31 001c 17070000 		sd	a5,.LANCHOR0,a4
  31      2330F700 
  16:src/Scheduler.cpp ****     if (!head) { tail = 0; }
  32              		.loc 1 16 5 is_stmt 1
  33 0024 638C0700 		beqz	a5,.L5
  34              	.L3:
  17:src/Scheduler.cpp ****     elem->schedulerNext = nullptr;
  35              		.loc 1 17 5
  36              		.loc 1 17 25 is_stmt 0
  37 0028 23380504 		sd	zero,80(a0)
  18:src/Scheduler.cpp ****     elem->schedulerPrev = nullptr;
  38              		.loc 1 18 5 is_stmt 1
GAS LISTING /tmp/ccxaT0Pe.s 			page 2


  39              		.loc 1 18 25 is_stmt 0
  40 002c 233C0504 		sd	zero,88(a0)
  19:src/Scheduler.cpp ****     return elem;
  41              		.loc 1 19 5 is_stmt 1
  42              	.LVL1:
  43              	.L1:
  20:src/Scheduler.cpp **** 
  21:src/Scheduler.cpp **** }
  44              		.loc 1 21 1 is_stmt 0
  45 0030 03348100 		ld	s0,8(sp)
  46              		.cfi_remember_state
  47              		.cfi_restore 8
  48              		.cfi_def_cfa 2, 16
  49 0034 13010101 		addi	sp,sp,16
  50              		.cfi_def_cfa_offset 0
  51 0038 67800000 		jr	ra
  52              	.LVL2:
  53              	.L5:
  54              		.cfi_restore_state
  16:src/Scheduler.cpp ****     elem->schedulerNext = nullptr;
  55              		.loc 1 16 18 is_stmt 1 discriminator 1
  16:src/Scheduler.cpp ****     elem->schedulerNext = nullptr;
  56              		.loc 1 16 23 is_stmt 0 discriminator 1
  57 003c 97070000 		sd	zero,.LANCHOR0+8,a5
  57      23B00700 
  58 0044 6FF05FFE 		j	.L3
  59              		.cfi_endproc
  60              	.LFE29:
  62              		.align	2
  63              		.globl	_ZN9Scheduler3putEP3TCB
  65              	_ZN9Scheduler3putEP3TCB:
  66              	.LFB30:
  22:src/Scheduler.cpp **** 
  23:src/Scheduler.cpp **** void Scheduler::put(TCB *pcb)
  24:src/Scheduler.cpp **** {
  67              		.loc 1 24 1 is_stmt 1
  68              		.cfi_startproc
  69              	.LVL3:
  70 0048 130101FF 		addi	sp,sp,-16
  71              		.cfi_def_cfa_offset 16
  72 004c 23348100 		sd	s0,8(sp)
  73              		.cfi_offset 8, -8
  74 0050 13040101 		addi	s0,sp,16
  75              		.cfi_def_cfa 8, 0
  25:src/Scheduler.cpp ****     if(pcb->schedulerNext!= nullptr || pcb->schedulerPrev != nullptr) return;
  76              		.loc 1 25 5
  77              		.loc 1 25 13 is_stmt 0
  78 0054 83370505 		ld	a5,80(a0)
  79              		.loc 1 25 5
  80 0058 63880700 		beqz	a5,.L10
  81              	.L6:
  26:src/Scheduler.cpp ****     if (tail)
  27:src/Scheduler.cpp ****     {
  28:src/Scheduler.cpp ****         tail->schedulerNext = pcb;
  29:src/Scheduler.cpp ****         pcb->schedulerPrev = tail;
  30:src/Scheduler.cpp ****         tail = pcb;
  31:src/Scheduler.cpp ****     } else
GAS LISTING /tmp/ccxaT0Pe.s 			page 3


  32:src/Scheduler.cpp ****     {
  33:src/Scheduler.cpp ****         head = tail = pcb;
  34:src/Scheduler.cpp ****     }
  35:src/Scheduler.cpp **** }
  82              		.loc 1 35 1
  83 005c 03348100 		ld	s0,8(sp)
  84              		.cfi_remember_state
  85              		.cfi_restore 8
  86              		.cfi_def_cfa 2, 16
  87 0060 13010101 		addi	sp,sp,16
  88              		.cfi_def_cfa_offset 0
  89 0064 67800000 		jr	ra
  90              	.L10:
  91              		.cfi_restore_state
  25:src/Scheduler.cpp ****     if(pcb->schedulerNext!= nullptr || pcb->schedulerPrev != nullptr) return;
  92              		.loc 1 25 45 discriminator 2
  93 0068 83378505 		ld	a5,88(a0)
  25:src/Scheduler.cpp ****     if(pcb->schedulerNext!= nullptr || pcb->schedulerPrev != nullptr) return;
  94              		.loc 1 25 37 discriminator 2
  95 006c E39807FE 		bnez	a5,.L6
  26:src/Scheduler.cpp ****     if (tail)
  96              		.loc 1 26 5 is_stmt 1
  26:src/Scheduler.cpp ****     if (tail)
  97              		.loc 1 26 13 is_stmt 0
  98 0070 97070000 		ld	a5,.LANCHOR0+8
  98      83B70700 
  26:src/Scheduler.cpp ****     if (tail)
  99              		.loc 1 26 5
 100 0078 638C0700 		beqz	a5,.L8
  28:src/Scheduler.cpp ****         pcb->schedulerPrev = tail;
 101              		.loc 1 28 9 is_stmt 1
  28:src/Scheduler.cpp ****         pcb->schedulerPrev = tail;
 102              		.loc 1 28 29 is_stmt 0
 103 007c 23B8A704 		sd	a0,80(a5)
  29:src/Scheduler.cpp ****         tail = pcb;
 104              		.loc 1 29 9 is_stmt 1
  29:src/Scheduler.cpp ****         tail = pcb;
 105              		.loc 1 29 28 is_stmt 0
 106 0080 233CF504 		sd	a5,88(a0)
  30:src/Scheduler.cpp ****     } else
 107              		.loc 1 30 9 is_stmt 1
  30:src/Scheduler.cpp ****     } else
 108              		.loc 1 30 14 is_stmt 0
 109 0084 97070000 		sd	a0,.LANCHOR0+8,a5
 109      23B0A700 
 110 008c 6FF01FFD 		j	.L6
 111              	.L8:
  33:src/Scheduler.cpp ****     }
 112              		.loc 1 33 9 is_stmt 1
  33:src/Scheduler.cpp ****     }
 113              		.loc 1 33 21 is_stmt 0
 114 0090 97070000 		lla	a5,.LANCHOR0
 114      93870700 
 115 0098 23B4A700 		sd	a0,8(a5)
  33:src/Scheduler.cpp ****     }
 116              		.loc 1 33 14
 117 009c 23B0A700 		sd	a0,0(a5)
GAS LISTING /tmp/ccxaT0Pe.s 			page 4


 118 00a0 6FF0DFFB 		j	.L6
 119              		.cfi_endproc
 120              	.LFE30:
 122              		.section	.rodata.str1.8,"aMS",@progbits,1
 123              		.align	3
 124              	.LC0:
 125 0000 0A00     		.string	"\n"
 126              		.text
 127              		.align	2
 128              		.globl	_ZN9Scheduler12printWaitingEv
 130              	_ZN9Scheduler12printWaitingEv:
 131              	.LFB31:
  36:src/Scheduler.cpp **** 
  37:src/Scheduler.cpp **** 
  38:src/Scheduler.cpp **** void Scheduler::printWaiting() {
 132              		.loc 1 38 32 is_stmt 1
 133              		.cfi_startproc
 134 00a4 130101FE 		addi	sp,sp,-32
 135              		.cfi_def_cfa_offset 32
 136 00a8 233C1100 		sd	ra,24(sp)
 137 00ac 23388100 		sd	s0,16(sp)
 138 00b0 23349100 		sd	s1,8(sp)
 139              		.cfi_offset 1, -8
 140              		.cfi_offset 8, -16
 141              		.cfi_offset 9, -24
 142 00b4 13040102 		addi	s0,sp,32
 143              		.cfi_def_cfa 8, 0
  39:src/Scheduler.cpp ****     TCB *curr = head;
 144              		.loc 1 39 5
 145              		.loc 1 39 10 is_stmt 0
 146 00b8 97040000 		ld	s1,.LANCHOR0
 146      83B40400 
 147              	.LVL4:
 148              	.L13:
  40:src/Scheduler.cpp ****     while(curr){
 149              		.loc 1 40 5 is_stmt 1
 150              		.loc 1 40 11
 151 00c0 63880402 		beqz	s1,.L11
  41:src/Scheduler.cpp ****         printInt((uint64)curr);
 152              		.loc 1 41 9
 153              		.loc 1 41 17 is_stmt 0
 154 00c4 13060000 		li	a2,0
 155 00c8 9305A000 		li	a1,10
 156 00cc 1B850400 		sext.w	a0,s1
 157 00d0 97000000 		call	_Z8printIntiii@plt
 157      E7800000 
 158              	.LVL5:
  42:src/Scheduler.cpp ****         printString("\n");
 159              		.loc 1 42 9 is_stmt 1
 160              		.loc 1 42 20 is_stmt 0
 161 00d8 17050000 		lla	a0,.LC0
 161      13050500 
 162 00e0 97000000 		call	_Z11printStringPKc@plt
 162      E7800000 
 163              	.LVL6:
  43:src/Scheduler.cpp ****         curr = curr->schedulerNext;
 164              		.loc 1 43 9 is_stmt 1
GAS LISTING /tmp/ccxaT0Pe.s 			page 5


 165              		.loc 1 43 14 is_stmt 0
 166 00e8 83B40405 		ld	s1,80(s1)
 167              	.LVL7:
  40:src/Scheduler.cpp ****         printInt((uint64)curr);
 168              		.loc 1 40 5
 169 00ec 6FF05FFD 		j	.L13
 170              	.L11:
  44:src/Scheduler.cpp ****     }
  45:src/Scheduler.cpp **** }
 171              		.loc 1 45 1
 172 00f0 83308101 		ld	ra,24(sp)
 173              		.cfi_restore 1
 174 00f4 03340101 		ld	s0,16(sp)
 175              		.cfi_restore 8
 176              		.cfi_def_cfa 2, 32
 177 00f8 83348100 		ld	s1,8(sp)
 178              		.cfi_restore 9
 179              	.LVL8:
 180 00fc 13010102 		addi	sp,sp,32
 181              		.cfi_def_cfa_offset 0
 182 0100 67800000 		jr	ra
 183              		.cfi_endproc
 184              	.LFE31:
 186              		.globl	_ZN9Scheduler4tailE
 187              		.globl	_ZN9Scheduler4headE
 188              		.bss
 189              		.align	3
 190              		.set	.LANCHOR0,. + 0
 193              	_ZN9Scheduler4headE:
 194 0000 00000000 		.zero	8
 194      00000000 
 197              	_ZN9Scheduler4tailE:
 198 0008 00000000 		.zero	8
 198      00000000 
 199              		.text
 200              	.Letext0:
 201              		.file 2 "src/../h/../test/../h/../lib/hw.h"
 202              		.file 3 "src/../h/tcb.hpp"
 203              		.file 4 "src/../h/Scheduler.hpp"
 204              		.file 5 "src/../h/../test/printing.hpp"
 205              		.file 6 "src/../h/../test/../h/syscall_c.hpp"
GAS LISTING /tmp/ccxaT0Pe.s 			page 6

