GAS LISTING /tmp/cc6B0Lnr.s 			page 1


   1              		.file	"syscall_cpp.cpp"
   2              		.option pic
   3              		.option norelax
   4              		.text
   5              	.Ltext0:
   6              		.section	.text._ZN6Thread3runEv,"axG",@progbits,_ZN6Thread3runEv,comdat
   7              		.align	2
   8              		.weak	_ZN6Thread3runEv
  10              	_ZN6Thread3runEv:
  11              	.LFB16:
  12              		.file 1 "src/../h/syscall_cpp.hpp"
   1:src/../h/syscall_cpp.hpp **** //
   2:src/../h/syscall_cpp.hpp **** // Created by os on 5/21/24.
   3:src/../h/syscall_cpp.hpp **** //
   4:src/../h/syscall_cpp.hpp **** 
   5:src/../h/syscall_cpp.hpp **** #ifndef PROJECT_BASE_SYSCALL_CPP_HPP
   6:src/../h/syscall_cpp.hpp **** #define PROJECT_BASE_SYSCALL_CPP_HPP
   7:src/../h/syscall_cpp.hpp **** #include "../h/syscall_c.hpp"
   8:src/../h/syscall_cpp.hpp **** 
   9:src/../h/syscall_cpp.hpp **** void* operator new (size_t);
  10:src/../h/syscall_cpp.hpp **** 
  11:src/../h/syscall_cpp.hpp **** void  operator delete (void*);
  12:src/../h/syscall_cpp.hpp **** 
  13:src/../h/syscall_cpp.hpp **** class Thread {
  14:src/../h/syscall_cpp.hpp **** public:
  15:src/../h/syscall_cpp.hpp ****     Thread (void (*body)(void*), void* arg);
  16:src/../h/syscall_cpp.hpp ****     virtual ~Thread ();
  17:src/../h/syscall_cpp.hpp ****     int start ();
  18:src/../h/syscall_cpp.hpp ****     static void dispatch ();
  19:src/../h/syscall_cpp.hpp ****     static int sleep (time_t);
  20:src/../h/syscall_cpp.hpp **** protected:
  21:src/../h/syscall_cpp.hpp ****     Thread ();
  22:src/../h/syscall_cpp.hpp ****     virtual void run () {}
  13              		.loc 1 22 18
  14              		.cfi_startproc
  15              	.LVL0:
  16 0000 130101FF 		addi	sp,sp,-16
  17              		.cfi_def_cfa_offset 16
  18 0004 23348100 		sd	s0,8(sp)
  19              		.cfi_offset 8, -8
  20 0008 13040101 		addi	s0,sp,16
  21              		.cfi_def_cfa 8, 0
  22              		.loc 1 22 26 is_stmt 0
  23 000c 03348100 		ld	s0,8(sp)
  24              		.cfi_restore 8
  25              		.cfi_def_cfa 2, 16
  26 0010 13010101 		addi	sp,sp,16
  27              		.cfi_def_cfa_offset 0
  28 0014 67800000 		jr	ra
  29              		.cfi_endproc
  30              	.LFE16:
  32              		.section	.text._ZN14PeriodicThread18periodicActivationEv,"axG",@progbits,_ZN14PeriodicThread18peri
  33              		.align	2
  34              		.weak	_ZN14PeriodicThread18periodicActivationEv
  36              	_ZN14PeriodicThread18periodicActivationEv:
  37              	.LFB17:
  23:src/../h/syscall_cpp.hpp **** private:
GAS LISTING /tmp/cc6B0Lnr.s 			page 2


  24:src/../h/syscall_cpp.hpp ****     thread_t myHandle;
  25:src/../h/syscall_cpp.hpp ****     static void wrapper(void *arg);
  26:src/../h/syscall_cpp.hpp ****     void (*body)(void*); void* arg;
  27:src/../h/syscall_cpp.hpp **** };
  28:src/../h/syscall_cpp.hpp **** 
  29:src/../h/syscall_cpp.hpp **** class Semaphore {
  30:src/../h/syscall_cpp.hpp **** public:
  31:src/../h/syscall_cpp.hpp ****     Semaphore (unsigned init = 1);
  32:src/../h/syscall_cpp.hpp ****     virtual ~Semaphore ();
  33:src/../h/syscall_cpp.hpp ****     int wait ();
  34:src/../h/syscall_cpp.hpp ****     int signal ();
  35:src/../h/syscall_cpp.hpp ****     int timedWait (time_t);
  36:src/../h/syscall_cpp.hpp ****     int tryWait();
  37:src/../h/syscall_cpp.hpp **** private:
  38:src/../h/syscall_cpp.hpp ****     sem_t myHandle;
  39:src/../h/syscall_cpp.hpp **** };
  40:src/../h/syscall_cpp.hpp **** 
  41:src/../h/syscall_cpp.hpp **** class PeriodicThread : public Thread {
  42:src/../h/syscall_cpp.hpp **** public:
  43:src/../h/syscall_cpp.hpp ****     void terminate ();
  44:src/../h/syscall_cpp.hpp **** protected:
  45:src/../h/syscall_cpp.hpp ****     PeriodicThread (time_t period);
  46:src/../h/syscall_cpp.hpp ****     virtual void periodicActivation () {}
  38              		.loc 1 46 18 is_stmt 1
  39              		.cfi_startproc
  40              	.LVL1:
  41 0000 130101FF 		addi	sp,sp,-16
  42              		.cfi_def_cfa_offset 16
  43 0004 23348100 		sd	s0,8(sp)
  44              		.cfi_offset 8, -8
  45 0008 13040101 		addi	s0,sp,16
  46              		.cfi_def_cfa 8, 0
  47              		.loc 1 46 41 is_stmt 0
  48 000c 03348100 		ld	s0,8(sp)
  49              		.cfi_restore 8
  50              		.cfi_def_cfa 2, 16
  51 0010 13010101 		addi	sp,sp,16
  52              		.cfi_def_cfa_offset 0
  53 0014 67800000 		jr	ra
  54              		.cfi_endproc
  55              	.LFE17:
  57              		.text
  58              		.align	2
  59              		.globl	_ZN6ThreadD2Ev
  61              	_ZN6ThreadD2Ev:
  62              	.LFB24:
  63              		.file 2 "src/syscall_cpp.cpp"
   1:src/syscall_cpp.cpp **** //
   2:src/syscall_cpp.cpp **** // Created by os on 5/21/24.
   3:src/syscall_cpp.cpp **** //
   4:src/syscall_cpp.cpp **** #include "../h/syscall_cpp.hpp"
   5:src/syscall_cpp.cpp **** 
   6:src/syscall_cpp.cpp **** 
   7:src/syscall_cpp.cpp **** void* operator new (size_t sz) {return mem_alloc(sz);}
   8:src/syscall_cpp.cpp **** 
   9:src/syscall_cpp.cpp **** void  operator delete (void* adrr) { mem_free(adrr);}
  10:src/syscall_cpp.cpp **** 
GAS LISTING /tmp/cc6B0Lnr.s 			page 3


  11:src/syscall_cpp.cpp **** Thread::Thread(void (*body)(void *), void *arg) : myHandle(nullptr),body(body),arg(arg){}
  12:src/syscall_cpp.cpp **** 
  13:src/syscall_cpp.cpp **** Thread::~Thread() {}
  64              		.loc 2 13 1 is_stmt 1
  65              		.cfi_startproc
  66              	.LVL2:
  67 0000 130101FF 		addi	sp,sp,-16
  68              		.cfi_def_cfa_offset 16
  69 0004 23348100 		sd	s0,8(sp)
  70              		.cfi_offset 8, -8
  71 0008 13040101 		addi	s0,sp,16
  72              		.cfi_def_cfa 8, 0
  73              		.loc 2 13 20 is_stmt 0
  74 000c 03348100 		ld	s0,8(sp)
  75              		.cfi_restore 8
  76              		.cfi_def_cfa 2, 16
  77 0010 13010101 		addi	sp,sp,16
  78              		.cfi_def_cfa_offset 0
  79 0014 67800000 		jr	ra
  80              		.cfi_endproc
  81              	.LFE24:
  83              		.globl	_ZN6ThreadD1Ev
  84              		.set	_ZN6ThreadD1Ev,_ZN6ThreadD2Ev
  85              		.align	2
  86              		.globl	_ZN6Thread7wrapperEPv
  88              	_ZN6Thread7wrapperEPv:
  89              	.LFB33:
  14:src/syscall_cpp.cpp **** 
  15:src/syscall_cpp.cpp **** int Thread::start() {
  16:src/syscall_cpp.cpp ****     if(myHandle) return -1;
  17:src/syscall_cpp.cpp **** 
  18:src/syscall_cpp.cpp ****     if(body == nullptr){
  19:src/syscall_cpp.cpp ****         thread_create(&myHandle,wrapper,this);
  20:src/syscall_cpp.cpp ****     } else{
  21:src/syscall_cpp.cpp ****         thread_create(&myHandle,body,arg);
  22:src/syscall_cpp.cpp ****     }
  23:src/syscall_cpp.cpp ****     return 0;
  24:src/syscall_cpp.cpp **** }
  25:src/syscall_cpp.cpp **** 
  26:src/syscall_cpp.cpp **** int Thread::sleep(time_t t) {
  27:src/syscall_cpp.cpp ****     return time_sleep(t);
  28:src/syscall_cpp.cpp **** }
  29:src/syscall_cpp.cpp **** 
  30:src/syscall_cpp.cpp **** void Thread::dispatch() { thread_dispatch(); }
  31:src/syscall_cpp.cpp **** 
  32:src/syscall_cpp.cpp **** Thread::Thread() : myHandle(nullptr),body(nullptr),arg(nullptr){ }
  33:src/syscall_cpp.cpp **** 
  34:src/syscall_cpp.cpp **** void Thread::wrapper(void *arg) {
  90              		.loc 2 34 33 is_stmt 1
  91              		.cfi_startproc
  92              	.LVL3:
  35:src/syscall_cpp.cpp ****     if(arg) ((Thread*)arg)->run();
  93              		.loc 2 35 5
  94 0018 63080502 		beqz	a0,.L10
  34:src/syscall_cpp.cpp ****     if(arg) ((Thread*)arg)->run();
  95              		.loc 2 34 33 is_stmt 0 discriminator 1
  96 001c 130101FF 		addi	sp,sp,-16
GAS LISTING /tmp/cc6B0Lnr.s 			page 4


  97              		.cfi_def_cfa_offset 16
  98 0020 23341100 		sd	ra,8(sp)
  99 0024 23308100 		sd	s0,0(sp)
 100              		.cfi_offset 1, -8
 101              		.cfi_offset 8, -16
 102 0028 13040101 		addi	s0,sp,16
 103              		.cfi_def_cfa 8, 0
 104              		.loc 2 35 13 is_stmt 1 discriminator 1
 105              		.loc 2 35 33 is_stmt 0 discriminator 1
 106 002c 83370500 		ld	a5,0(a0)
 107 0030 83B70701 		ld	a5,16(a5)
 108              		.loc 2 35 32 discriminator 1
 109 0034 E7800700 		jalr	a5
 110              	.LVL4:
  36:src/syscall_cpp.cpp **** }
 111              		.loc 2 36 1 discriminator 1
 112 0038 83308100 		ld	ra,8(sp)
 113              		.cfi_restore 1
 114 003c 03340100 		ld	s0,0(sp)
 115              		.cfi_restore 8
 116              		.cfi_def_cfa 2, 16
 117 0040 13010101 		addi	sp,sp,16
 118              		.cfi_def_cfa_offset 0
 119 0044 67800000 		jr	ra
 120              	.LVL5:
 121              	.L10:
 122 0048 67800000 		ret
 123              		.cfi_endproc
 124              	.LFE33:
 126              		.section	.text._ZN14PeriodicThreadD2Ev,"axG",@progbits,_ZN14PeriodicThreadD5Ev,comdat
 127              		.align	2
 128              		.weak	_ZN14PeriodicThreadD2Ev
 130              	_ZN14PeriodicThreadD2Ev:
 131              	.LFB53:
  41:src/../h/syscall_cpp.hpp **** public:
 132              		.loc 1 41 7 is_stmt 1
 133              		.cfi_startproc
 134              	.LVL6:
 135 0000 130101FF 		addi	sp,sp,-16
 136              		.cfi_def_cfa_offset 16
 137 0004 23348100 		sd	s0,8(sp)
 138              		.cfi_offset 8, -8
 139 0008 13040101 		addi	s0,sp,16
 140              		.cfi_def_cfa 8, 0
 141              	.LBB5:
  41:src/../h/syscall_cpp.hpp **** public:
 142              		.loc 1 41 7 is_stmt 0
 143 000c 97070000 		lla	a5,_ZTV14PeriodicThread+16
 143      93870700 
 144 0014 2330F500 		sd	a5,0(a0)
 145              	.LBE5:
 146 0018 03348100 		ld	s0,8(sp)
 147              		.cfi_restore 8
 148              		.cfi_def_cfa 2, 16
 149 001c 13010101 		addi	sp,sp,16
 150              		.cfi_def_cfa_offset 0
 151 0020 67800000 		jr	ra
GAS LISTING /tmp/cc6B0Lnr.s 			page 5


 152              		.cfi_endproc
 153              	.LFE53:
 155              		.weak	_ZN14PeriodicThreadD1Ev
 156              		.set	_ZN14PeriodicThreadD1Ev,_ZN14PeriodicThreadD2Ev
 157              		.text
 158              		.align	2
 159              		.globl	_ZN14PeriodicThread3runEv
 161              	_ZN14PeriodicThread3runEv:
 162              	.LFB49:
  37:src/syscall_cpp.cpp **** 
  38:src/syscall_cpp.cpp **** Semaphore::Semaphore(unsigned int init) {
  39:src/syscall_cpp.cpp ****     sem_open(&myHandle,init);
  40:src/syscall_cpp.cpp **** }
  41:src/syscall_cpp.cpp **** 
  42:src/syscall_cpp.cpp **** Semaphore::~Semaphore() {
  43:src/syscall_cpp.cpp ****     sem_close(myHandle);
  44:src/syscall_cpp.cpp **** }
  45:src/syscall_cpp.cpp **** 
  46:src/syscall_cpp.cpp **** int Semaphore::wait() {
  47:src/syscall_cpp.cpp ****     return sem_wait(myHandle);
  48:src/syscall_cpp.cpp **** }
  49:src/syscall_cpp.cpp **** 
  50:src/syscall_cpp.cpp **** int Semaphore::signal() {
  51:src/syscall_cpp.cpp ****     return sem_signal(myHandle);
  52:src/syscall_cpp.cpp **** }
  53:src/syscall_cpp.cpp **** 
  54:src/syscall_cpp.cpp **** int Semaphore::timedWait(time_t time) {
  55:src/syscall_cpp.cpp ****     return sem_timedwait(myHandle,time);
  56:src/syscall_cpp.cpp **** }
  57:src/syscall_cpp.cpp **** 
  58:src/syscall_cpp.cpp **** int Semaphore::tryWait() {
  59:src/syscall_cpp.cpp ****     return sem_trywait(myHandle);
  60:src/syscall_cpp.cpp **** }
  61:src/syscall_cpp.cpp **** 
  62:src/syscall_cpp.cpp **** void PeriodicThread::terminate() {
  63:src/syscall_cpp.cpp ****     period = 0;
  64:src/syscall_cpp.cpp **** }
  65:src/syscall_cpp.cpp **** 
  66:src/syscall_cpp.cpp **** PeriodicThread::PeriodicThread(time_t period):period(period) {}
  67:src/syscall_cpp.cpp **** 
  68:src/syscall_cpp.cpp **** void PeriodicThread::run(){
 163              		.loc 2 68 27 is_stmt 1
 164              		.cfi_startproc
 165              	.LVL7:
 166 004c 130101FE 		addi	sp,sp,-32
 167              		.cfi_def_cfa_offset 32
 168 0050 233C1100 		sd	ra,24(sp)
 169 0054 23388100 		sd	s0,16(sp)
 170 0058 23349100 		sd	s1,8(sp)
 171              		.cfi_offset 1, -8
 172              		.cfi_offset 8, -16
 173              		.cfi_offset 9, -24
 174 005c 13040102 		addi	s0,sp,32
 175              		.cfi_def_cfa 8, 0
 176 0060 93040500 		mv	s1,a0
 177              	.LVL8:
 178              	.L17:
GAS LISTING /tmp/cc6B0Lnr.s 			page 6


  69:src/syscall_cpp.cpp ****     while(period){
 179              		.loc 2 69 5
 180              		.loc 2 69 11
 181 0064 83B70402 		ld	a5,32(s1)
 182 0068 63820702 		beqz	a5,.L15
  70:src/syscall_cpp.cpp ****         periodicActivation();
 183              		.loc 2 70 9
 184              		.loc 2 70 28 is_stmt 0
 185 006c 83B70400 		ld	a5,0(s1)
 186 0070 83B78701 		ld	a5,24(a5)
 187              		.loc 2 70 27
 188 0074 13850400 		mv	a0,s1
 189 0078 E7800700 		jalr	a5
 190              	.LVL9:
  71:src/syscall_cpp.cpp ****         time_sleep(period);
 191              		.loc 2 71 9 is_stmt 1
 192              		.loc 2 71 19 is_stmt 0
 193 007c 03B50402 		ld	a0,32(s1)
 194 0080 97000000 		call	_Z10time_sleepm@plt
 194      E7800000 
 195              	.LVL10:
  69:src/syscall_cpp.cpp ****     while(period){
 196              		.loc 2 69 5
 197 0088 6FF0DFFD 		j	.L17
 198              	.L15:
  72:src/syscall_cpp.cpp ****     }
  73:src/syscall_cpp.cpp **** }
 199              		.loc 2 73 1
 200 008c 83308101 		ld	ra,24(sp)
 201              		.cfi_restore 1
 202 0090 03340101 		ld	s0,16(sp)
 203              		.cfi_restore 8
 204              		.cfi_def_cfa 2, 32
 205 0094 83348100 		ld	s1,8(sp)
 206              		.cfi_restore 9
 207              	.LVL11:
 208 0098 13010102 		addi	sp,sp,32
 209              		.cfi_def_cfa_offset 0
 210 009c 67800000 		jr	ra
 211              		.cfi_endproc
 212              	.LFE49:
 214              		.align	2
 215              		.globl	_ZN9SemaphoreD2Ev
 217              	_ZN9SemaphoreD2Ev:
 218              	.LFB38:
  42:src/syscall_cpp.cpp ****     sem_close(myHandle);
 219              		.loc 2 42 1 is_stmt 1
 220              		.cfi_startproc
 221              		.cfi_personality 0x9b,DW.ref.__gxx_personality_v0
 222              		.cfi_lsda 0x1b,.LLSDA38
 223              	.LVL12:
 224 00a0 130101FF 		addi	sp,sp,-16
 225              		.cfi_def_cfa_offset 16
 226 00a4 23341100 		sd	ra,8(sp)
 227 00a8 23308100 		sd	s0,0(sp)
 228              		.cfi_offset 1, -8
 229              		.cfi_offset 8, -16
GAS LISTING /tmp/cc6B0Lnr.s 			page 7


 230 00ac 13040101 		addi	s0,sp,16
 231              		.cfi_def_cfa 8, 0
 232              	.LBB6:
  42:src/syscall_cpp.cpp ****     sem_close(myHandle);
 233              		.loc 2 42 23 is_stmt 0
 234 00b0 97070000 		lla	a5,_ZTV9Semaphore+16
 234      93870700 
 235 00b8 2330F500 		sd	a5,0(a0)
  43:src/syscall_cpp.cpp **** }
 236              		.loc 2 43 5 is_stmt 1
  43:src/syscall_cpp.cpp **** }
 237              		.loc 2 43 14 is_stmt 0
 238 00bc 03358500 		ld	a0,8(a0)
 239              	.LVL13:
 240 00c0 97000000 		call	_Z9sem_closeP10kSemaphore@plt
 240      E7800000 
 241              	.LVL14:
 242              	.LBE6:
  44:src/syscall_cpp.cpp **** 
 243              		.loc 2 44 1
 244 00c8 83308100 		ld	ra,8(sp)
 245              		.cfi_restore 1
 246 00cc 03340100 		ld	s0,0(sp)
 247              		.cfi_restore 8
 248              		.cfi_def_cfa 2, 16
 249 00d0 13010101 		addi	sp,sp,16
 250              		.cfi_def_cfa_offset 0
 251 00d4 67800000 		jr	ra
 252              		.cfi_endproc
 253              	.LFE38:
 254              		.globl	__gxx_personality_v0
 255              		.section	.gcc_except_table,"a",@progbits
 256              	.LLSDA38:
 257 0000 FF       		.byte	0xff
 258 0001 FF       		.byte	0xff
 259 0002 03       		.byte	0x3
 260 0003 00       		.byte	0
 261              		.text
 263              		.globl	_ZN9SemaphoreD1Ev
 264              		.set	_ZN9SemaphoreD1Ev,_ZN9SemaphoreD2Ev
 265              		.align	2
 266              		.globl	_Znwm
 268              	_Znwm:
 269              	.LFB18:
   7:src/syscall_cpp.cpp **** 
 270              		.loc 2 7 32 is_stmt 1
 271              		.cfi_startproc
 272              	.LVL15:
 273 00d8 130101FF 		addi	sp,sp,-16
 274              		.cfi_def_cfa_offset 16
 275 00dc 23341100 		sd	ra,8(sp)
 276 00e0 23308100 		sd	s0,0(sp)
 277              		.cfi_offset 1, -8
 278              		.cfi_offset 8, -16
 279 00e4 13040101 		addi	s0,sp,16
 280              		.cfi_def_cfa 8, 0
   7:src/syscall_cpp.cpp **** 
GAS LISTING /tmp/cc6B0Lnr.s 			page 8


 281              		.loc 2 7 33
   7:src/syscall_cpp.cpp **** 
 282              		.loc 2 7 49 is_stmt 0
 283 00e8 97000000 		call	_Z9mem_allocm@plt
 283      E7800000 
 284              	.LVL16:
   7:src/syscall_cpp.cpp **** 
 285              		.loc 2 7 54
 286 00f0 83308100 		ld	ra,8(sp)
 287              		.cfi_restore 1
 288 00f4 03340100 		ld	s0,0(sp)
 289              		.cfi_restore 8
 290              		.cfi_def_cfa 2, 16
 291 00f8 13010101 		addi	sp,sp,16
 292              		.cfi_def_cfa_offset 0
 293 00fc 67800000 		jr	ra
 294              		.cfi_endproc
 295              	.LFE18:
 297              		.align	2
 298              		.globl	_ZdlPv
 300              	_ZdlPv:
 301              	.LFB19:
   9:src/syscall_cpp.cpp **** 
 302              		.loc 2 9 36 is_stmt 1
 303              		.cfi_startproc
 304              	.LVL17:
 305 0100 130101FF 		addi	sp,sp,-16
 306              		.cfi_def_cfa_offset 16
 307 0104 23341100 		sd	ra,8(sp)
 308 0108 23308100 		sd	s0,0(sp)
 309              		.cfi_offset 1, -8
 310              		.cfi_offset 8, -16
 311 010c 13040101 		addi	s0,sp,16
 312              		.cfi_def_cfa 8, 0
   9:src/syscall_cpp.cpp **** 
 313              		.loc 2 9 38
   9:src/syscall_cpp.cpp **** 
 314              		.loc 2 9 46 is_stmt 0
 315 0110 97000000 		call	_Z8mem_freePv@plt
 315      E7800000 
 316              	.LVL18:
   9:src/syscall_cpp.cpp **** 
 317              		.loc 2 9 53
 318 0118 83308100 		ld	ra,8(sp)
 319              		.cfi_restore 1
 320 011c 03340100 		ld	s0,0(sp)
 321              		.cfi_restore 8
 322              		.cfi_def_cfa 2, 16
 323 0120 13010101 		addi	sp,sp,16
 324              		.cfi_def_cfa_offset 0
 325 0124 67800000 		jr	ra
 326              		.cfi_endproc
 327              	.LFE19:
 329              		.align	2
 330              		.globl	_ZN6ThreadD0Ev
 332              	_ZN6ThreadD0Ev:
 333              	.LFB26:
GAS LISTING /tmp/cc6B0Lnr.s 			page 9


  13:src/syscall_cpp.cpp **** 
 334              		.loc 2 13 1 is_stmt 1
 335              		.cfi_startproc
 336              	.LVL19:
 337 0128 130101FF 		addi	sp,sp,-16
 338              		.cfi_def_cfa_offset 16
 339 012c 23341100 		sd	ra,8(sp)
 340 0130 23308100 		sd	s0,0(sp)
 341              		.cfi_offset 1, -8
 342              		.cfi_offset 8, -16
 343 0134 13040101 		addi	s0,sp,16
 344              		.cfi_def_cfa 8, 0
  13:src/syscall_cpp.cpp **** 
 345              		.loc 2 13 20 is_stmt 0
 346 0138 97000000 		call	_ZdlPv
 346      E7800000 
 347              	.LVL20:
 348 0140 83308100 		ld	ra,8(sp)
 349              		.cfi_restore 1
 350 0144 03340100 		ld	s0,0(sp)
 351              		.cfi_restore 8
 352              		.cfi_def_cfa 2, 16
 353 0148 13010101 		addi	sp,sp,16
 354              		.cfi_def_cfa_offset 0
 355 014c 67800000 		jr	ra
 356              		.cfi_endproc
 357              	.LFE26:
 359              		.align	2
 360              		.globl	_ZN9SemaphoreD0Ev
 362              	_ZN9SemaphoreD0Ev:
 363              	.LFB40:
  42:src/syscall_cpp.cpp ****     sem_close(myHandle);
 364              		.loc 2 42 1 is_stmt 1
 365              		.cfi_startproc
 366              	.LVL21:
 367 0150 130101FE 		addi	sp,sp,-32
 368              		.cfi_def_cfa_offset 32
 369 0154 233C1100 		sd	ra,24(sp)
 370 0158 23388100 		sd	s0,16(sp)
 371 015c 23349100 		sd	s1,8(sp)
 372              		.cfi_offset 1, -8
 373              		.cfi_offset 8, -16
 374              		.cfi_offset 9, -24
 375 0160 13040102 		addi	s0,sp,32
 376              		.cfi_def_cfa 8, 0
 377 0164 93040500 		mv	s1,a0
  44:src/syscall_cpp.cpp **** 
 378              		.loc 2 44 1 is_stmt 0
 379 0168 97000000 		call	_ZN9SemaphoreD1Ev
 379      E7800000 
 380              	.LVL22:
 381 0170 13850400 		mv	a0,s1
 382 0174 97000000 		call	_ZdlPv
 382      E7800000 
 383              	.LVL23:
 384 017c 83308101 		ld	ra,24(sp)
 385              		.cfi_restore 1
GAS LISTING /tmp/cc6B0Lnr.s 			page 10


 386 0180 03340101 		ld	s0,16(sp)
 387              		.cfi_restore 8
 388              		.cfi_def_cfa 2, 32
 389 0184 83348100 		ld	s1,8(sp)
 390              		.cfi_restore 9
 391              	.LVL24:
 392 0188 13010102 		addi	sp,sp,32
 393              		.cfi_def_cfa_offset 0
 394 018c 67800000 		jr	ra
 395              		.cfi_endproc
 396              	.LFE40:
 398              		.section	.text._ZN14PeriodicThreadD0Ev,"axG",@progbits,_ZN14PeriodicThreadD5Ev,comdat
 399              		.align	2
 400              		.weak	_ZN14PeriodicThreadD0Ev
 402              	_ZN14PeriodicThreadD0Ev:
 403              	.LFB55:
  41:src/../h/syscall_cpp.hpp **** public:
 404              		.loc 1 41 7 is_stmt 1
 405              		.cfi_startproc
 406              	.LVL25:
 407 0000 130101FF 		addi	sp,sp,-16
 408              		.cfi_def_cfa_offset 16
 409 0004 23341100 		sd	ra,8(sp)
 410 0008 23308100 		sd	s0,0(sp)
 411              		.cfi_offset 1, -8
 412              		.cfi_offset 8, -16
 413 000c 13040101 		addi	s0,sp,16
 414              		.cfi_def_cfa 8, 0
 415              	.LVL26:
 416              	.LBB7:
 417              	.LBB8:
  41:src/../h/syscall_cpp.hpp **** public:
 418              		.loc 1 41 7 is_stmt 0
 419 0010 97070000 		lla	a5,_ZTV14PeriodicThread+16
 419      93870700 
 420 0018 2330F500 		sd	a5,0(a0)
 421              	.LVL27:
 422              	.LBE8:
 423              	.LBE7:
 424 001c 97000000 		call	_ZdlPv
 424      E7800000 
 425              	.LVL28:
 426 0024 83308100 		ld	ra,8(sp)
 427              		.cfi_restore 1
 428 0028 03340100 		ld	s0,0(sp)
 429              		.cfi_restore 8
 430              		.cfi_def_cfa 2, 16
 431 002c 13010101 		addi	sp,sp,16
 432              		.cfi_def_cfa_offset 0
 433 0030 67800000 		jr	ra
 434              		.cfi_endproc
 435              	.LFE55:
 437              		.text
 438              		.align	2
 439              		.globl	_ZN6ThreadC2EPFvPvES0_
 441              	_ZN6ThreadC2EPFvPvES0_:
 442              	.LFB21:
GAS LISTING /tmp/cc6B0Lnr.s 			page 11


  11:src/syscall_cpp.cpp **** 
 443              		.loc 2 11 1 is_stmt 1
 444              		.cfi_startproc
 445              	.LVL29:
 446 0190 130101FF 		addi	sp,sp,-16
 447              		.cfi_def_cfa_offset 16
 448 0194 23348100 		sd	s0,8(sp)
 449              		.cfi_offset 8, -8
 450 0198 13040101 		addi	s0,sp,16
 451              		.cfi_def_cfa 8, 0
 452              	.LBB9:
  11:src/syscall_cpp.cpp **** 
 453              		.loc 2 11 87 is_stmt 0
 454 019c 97070000 		lla	a5,_ZTV6Thread+16
 454      93870700 
 455 01a4 2330F500 		sd	a5,0(a0)
 456 01a8 23340500 		sd	zero,8(a0)
 457 01ac 2338B500 		sd	a1,16(a0)
 458 01b0 233CC500 		sd	a2,24(a0)
 459              	.LBE9:
  11:src/syscall_cpp.cpp **** 
 460              		.loc 2 11 89
 461 01b4 03348100 		ld	s0,8(sp)
 462              		.cfi_restore 8
 463              		.cfi_def_cfa 2, 16
 464 01b8 13010101 		addi	sp,sp,16
 465              		.cfi_def_cfa_offset 0
 466 01bc 67800000 		jr	ra
 467              		.cfi_endproc
 468              	.LFE21:
 470              		.globl	_ZN6ThreadC1EPFvPvES0_
 471              		.set	_ZN6ThreadC1EPFvPvES0_,_ZN6ThreadC2EPFvPvES0_
 472              		.align	2
 473              		.globl	_ZN6Thread5startEv
 475              	_ZN6Thread5startEv:
 476              	.LFB27:
  15:src/syscall_cpp.cpp ****     if(myHandle) return -1;
 477              		.loc 2 15 21 is_stmt 1
 478              		.cfi_startproc
 479              	.LVL30:
  16:src/syscall_cpp.cpp **** 
 480              		.loc 2 16 5
  16:src/syscall_cpp.cpp **** 
 481              		.loc 2 16 8 is_stmt 0
 482 01c0 83378500 		ld	a5,8(a0)
  16:src/syscall_cpp.cpp **** 
 483              		.loc 2 16 5
 484 01c4 63900706 		bnez	a5,.L36
  15:src/syscall_cpp.cpp ****     if(myHandle) return -1;
 485              		.loc 2 15 21
 486 01c8 130101FF 		addi	sp,sp,-16
 487              		.cfi_def_cfa_offset 16
 488 01cc 23341100 		sd	ra,8(sp)
 489 01d0 23308100 		sd	s0,0(sp)
 490              		.cfi_offset 1, -8
 491              		.cfi_offset 8, -16
 492 01d4 13040101 		addi	s0,sp,16
GAS LISTING /tmp/cc6B0Lnr.s 			page 12


 493              		.cfi_def_cfa 8, 0
  18:src/syscall_cpp.cpp ****         thread_create(&myHandle,wrapper,this);
 494              		.loc 2 18 5 is_stmt 1
  18:src/syscall_cpp.cpp ****         thread_create(&myHandle,wrapper,this);
 495              		.loc 2 18 8 is_stmt 0
 496 01d8 83350501 		ld	a1,16(a0)
  18:src/syscall_cpp.cpp ****         thread_create(&myHandle,wrapper,this);
 497              		.loc 2 18 5
 498 01dc 63840502 		beqz	a1,.L41
  21:src/syscall_cpp.cpp ****     }
 499              		.loc 2 21 9 is_stmt 1
  21:src/syscall_cpp.cpp ****     }
 500              		.loc 2 21 22 is_stmt 0
 501 01e0 03368501 		ld	a2,24(a0)
 502 01e4 13058500 		addi	a0,a0,8
 503              	.LVL31:
 504 01e8 97000000 		call	_Z13thread_createPP3TCBPFvPvES2_@plt
 504      E7800000 
 505              	.LVL32:
  23:src/syscall_cpp.cpp **** }
 506              		.loc 2 23 12
 507 01f0 13050000 		li	a0,0
 508              	.L34:
  24:src/syscall_cpp.cpp **** 
 509              		.loc 2 24 1
 510 01f4 83308100 		ld	ra,8(sp)
 511              		.cfi_remember_state
 512              		.cfi_restore 1
 513 01f8 03340100 		ld	s0,0(sp)
 514              		.cfi_restore 8
 515              		.cfi_def_cfa 2, 16
 516 01fc 13010101 		addi	sp,sp,16
 517              		.cfi_def_cfa_offset 0
 518 0200 67800000 		jr	ra
 519              	.LVL33:
 520              	.L41:
 521              		.cfi_restore_state
  19:src/syscall_cpp.cpp ****     } else{
 522              		.loc 2 19 9 is_stmt 1
  19:src/syscall_cpp.cpp ****     } else{
 523              		.loc 2 19 22 is_stmt 0
 524 0204 13060500 		mv	a2,a0
 525 0208 97050000 		lla	a1,_ZN6Thread7wrapperEPv
 525      93850500 
 526 0210 13058500 		addi	a0,a0,8
 527              	.LVL34:
 528 0214 97000000 		call	_Z13thread_createPP3TCBPFvPvES2_@plt
 528      E7800000 
 529              	.LVL35:
  23:src/syscall_cpp.cpp **** }
 530              		.loc 2 23 12
 531 021c 13050000 		li	a0,0
 532 0220 6FF05FFD 		j	.L34
 533              	.LVL36:
 534              	.L36:
 535              		.cfi_def_cfa_register 2
 536              		.cfi_restore 1
GAS LISTING /tmp/cc6B0Lnr.s 			page 13


 537              		.cfi_restore 8
  16:src/syscall_cpp.cpp **** 
 538              		.loc 2 16 26
 539 0224 1305F0FF 		li	a0,-1
 540              	.LVL37:
  24:src/syscall_cpp.cpp **** 
 541              		.loc 2 24 1
 542 0228 67800000 		ret
 543              		.cfi_endproc
 544              	.LFE27:
 546              		.align	2
 547              		.globl	_ZN6Thread5sleepEm
 549              	_ZN6Thread5sleepEm:
 550              	.LFB28:
  26:src/syscall_cpp.cpp ****     return time_sleep(t);
 551              		.loc 2 26 29 is_stmt 1
 552              		.cfi_startproc
 553              	.LVL38:
 554 022c 130101FF 		addi	sp,sp,-16
 555              		.cfi_def_cfa_offset 16
 556 0230 23341100 		sd	ra,8(sp)
 557 0234 23308100 		sd	s0,0(sp)
 558              		.cfi_offset 1, -8
 559              		.cfi_offset 8, -16
 560 0238 13040101 		addi	s0,sp,16
 561              		.cfi_def_cfa 8, 0
  27:src/syscall_cpp.cpp **** }
 562              		.loc 2 27 5
  27:src/syscall_cpp.cpp **** }
 563              		.loc 2 27 22 is_stmt 0
 564 023c 97000000 		call	_Z10time_sleepm@plt
 564      E7800000 
 565              	.LVL39:
  28:src/syscall_cpp.cpp **** 
 566              		.loc 2 28 1
 567 0244 83308100 		ld	ra,8(sp)
 568              		.cfi_restore 1
 569 0248 03340100 		ld	s0,0(sp)
 570              		.cfi_restore 8
 571              		.cfi_def_cfa 2, 16
 572 024c 13010101 		addi	sp,sp,16
 573              		.cfi_def_cfa_offset 0
 574 0250 67800000 		jr	ra
 575              		.cfi_endproc
 576              	.LFE28:
 578              		.align	2
 579              		.globl	_ZN6Thread8dispatchEv
 581              	_ZN6Thread8dispatchEv:
 582              	.LFB29:
  30:src/syscall_cpp.cpp **** 
 583              		.loc 2 30 25 is_stmt 1
 584              		.cfi_startproc
 585 0254 130101FF 		addi	sp,sp,-16
 586              		.cfi_def_cfa_offset 16
 587 0258 23341100 		sd	ra,8(sp)
 588 025c 23308100 		sd	s0,0(sp)
 589              		.cfi_offset 1, -8
GAS LISTING /tmp/cc6B0Lnr.s 			page 14


 590              		.cfi_offset 8, -16
 591 0260 13040101 		addi	s0,sp,16
 592              		.cfi_def_cfa 8, 0
  30:src/syscall_cpp.cpp **** 
 593              		.loc 2 30 27
  30:src/syscall_cpp.cpp **** 
 594              		.loc 2 30 42 is_stmt 0
 595 0264 97000000 		call	_Z15thread_dispatchv@plt
 595      E7800000 
 596              	.LVL40:
  30:src/syscall_cpp.cpp **** 
 597              		.loc 2 30 46
 598 026c 83308100 		ld	ra,8(sp)
 599              		.cfi_restore 1
 600 0270 03340100 		ld	s0,0(sp)
 601              		.cfi_restore 8
 602              		.cfi_def_cfa 2, 16
 603 0274 13010101 		addi	sp,sp,16
 604              		.cfi_def_cfa_offset 0
 605 0278 67800000 		jr	ra
 606              		.cfi_endproc
 607              	.LFE29:
 609              		.align	2
 610              		.globl	_ZN6ThreadC2Ev
 612              	_ZN6ThreadC2Ev:
 613              	.LFB31:
  32:src/syscall_cpp.cpp **** 
 614              		.loc 2 32 1 is_stmt 1
 615              		.cfi_startproc
 616              	.LVL41:
 617 027c 130101FF 		addi	sp,sp,-16
 618              		.cfi_def_cfa_offset 16
 619 0280 23348100 		sd	s0,8(sp)
 620              		.cfi_offset 8, -8
 621 0284 13040101 		addi	s0,sp,16
 622              		.cfi_def_cfa 8, 0
 623              	.LBB10:
  32:src/syscall_cpp.cpp **** 
 624              		.loc 2 32 63 is_stmt 0
 625 0288 97070000 		lla	a5,_ZTV6Thread+16
 625      93870700 
 626 0290 2330F500 		sd	a5,0(a0)
 627 0294 23340500 		sd	zero,8(a0)
 628 0298 23380500 		sd	zero,16(a0)
 629 029c 233C0500 		sd	zero,24(a0)
 630              	.LBE10:
  32:src/syscall_cpp.cpp **** 
 631              		.loc 2 32 66
 632 02a0 03348100 		ld	s0,8(sp)
 633              		.cfi_restore 8
 634              		.cfi_def_cfa 2, 16
 635 02a4 13010101 		addi	sp,sp,16
 636              		.cfi_def_cfa_offset 0
 637 02a8 67800000 		jr	ra
 638              		.cfi_endproc
 639              	.LFE31:
 641              		.globl	_ZN6ThreadC1Ev
GAS LISTING /tmp/cc6B0Lnr.s 			page 15


 642              		.set	_ZN6ThreadC1Ev,_ZN6ThreadC2Ev
 643              		.align	2
 644              		.globl	_ZN9SemaphoreC2Ej
 646              	_ZN9SemaphoreC2Ej:
 647              	.LFB35:
  38:src/syscall_cpp.cpp ****     sem_open(&myHandle,init);
 648              		.loc 2 38 1 is_stmt 1
 649              		.cfi_startproc
 650              	.LVL42:
 651 02ac 130101FF 		addi	sp,sp,-16
 652              		.cfi_def_cfa_offset 16
 653 02b0 23341100 		sd	ra,8(sp)
 654 02b4 23308100 		sd	s0,0(sp)
 655              		.cfi_offset 1, -8
 656              		.cfi_offset 8, -16
 657 02b8 13040101 		addi	s0,sp,16
 658              		.cfi_def_cfa 8, 0
 659              	.LBB11:
  38:src/syscall_cpp.cpp ****     sem_open(&myHandle,init);
 660              		.loc 2 38 39 is_stmt 0
 661 02bc 97070000 		lla	a5,_ZTV9Semaphore+16
 661      93870700 
 662 02c4 2330F500 		sd	a5,0(a0)
  39:src/syscall_cpp.cpp **** }
 663              		.loc 2 39 5 is_stmt 1
  39:src/syscall_cpp.cpp **** }
 664              		.loc 2 39 13 is_stmt 0
 665 02c8 13058500 		addi	a0,a0,8
 666              	.LVL43:
 667 02cc 97000000 		call	_Z8sem_openPP10kSemaphorej@plt
 667      E7800000 
 668              	.LVL44:
 669              	.LBE11:
  40:src/syscall_cpp.cpp **** 
 670              		.loc 2 40 1
 671 02d4 83308100 		ld	ra,8(sp)
 672              		.cfi_restore 1
 673 02d8 03340100 		ld	s0,0(sp)
 674              		.cfi_restore 8
 675              		.cfi_def_cfa 2, 16
 676 02dc 13010101 		addi	sp,sp,16
 677              		.cfi_def_cfa_offset 0
 678 02e0 67800000 		jr	ra
 679              		.cfi_endproc
 680              	.LFE35:
 682              		.globl	_ZN9SemaphoreC1Ej
 683              		.set	_ZN9SemaphoreC1Ej,_ZN9SemaphoreC2Ej
 684              		.align	2
 685              		.globl	_ZN9Semaphore4waitEv
 687              	_ZN9Semaphore4waitEv:
 688              	.LFB41:
  46:src/syscall_cpp.cpp ****     return sem_wait(myHandle);
 689              		.loc 2 46 23 is_stmt 1
 690              		.cfi_startproc
 691              	.LVL45:
 692 02e4 130101FF 		addi	sp,sp,-16
 693              		.cfi_def_cfa_offset 16
GAS LISTING /tmp/cc6B0Lnr.s 			page 16


 694 02e8 23341100 		sd	ra,8(sp)
 695 02ec 23308100 		sd	s0,0(sp)
 696              		.cfi_offset 1, -8
 697              		.cfi_offset 8, -16
 698 02f0 13040101 		addi	s0,sp,16
 699              		.cfi_def_cfa 8, 0
  47:src/syscall_cpp.cpp **** }
 700              		.loc 2 47 5
  47:src/syscall_cpp.cpp **** }
 701              		.loc 2 47 20 is_stmt 0
 702 02f4 03358500 		ld	a0,8(a0)
 703              	.LVL46:
 704 02f8 97000000 		call	_Z8sem_waitP10kSemaphore@plt
 704      E7800000 
 705              	.LVL47:
  48:src/syscall_cpp.cpp **** 
 706              		.loc 2 48 1
 707 0300 83308100 		ld	ra,8(sp)
 708              		.cfi_restore 1
 709 0304 03340100 		ld	s0,0(sp)
 710              		.cfi_restore 8
 711              		.cfi_def_cfa 2, 16
 712 0308 13010101 		addi	sp,sp,16
 713              		.cfi_def_cfa_offset 0
 714 030c 67800000 		jr	ra
 715              		.cfi_endproc
 716              	.LFE41:
 718              		.align	2
 719              		.globl	_ZN9Semaphore6signalEv
 721              	_ZN9Semaphore6signalEv:
 722              	.LFB42:
  50:src/syscall_cpp.cpp ****     return sem_signal(myHandle);
 723              		.loc 2 50 25 is_stmt 1
 724              		.cfi_startproc
 725              	.LVL48:
 726 0310 130101FF 		addi	sp,sp,-16
 727              		.cfi_def_cfa_offset 16
 728 0314 23341100 		sd	ra,8(sp)
 729 0318 23308100 		sd	s0,0(sp)
 730              		.cfi_offset 1, -8
 731              		.cfi_offset 8, -16
 732 031c 13040101 		addi	s0,sp,16
 733              		.cfi_def_cfa 8, 0
  51:src/syscall_cpp.cpp **** }
 734              		.loc 2 51 5
  51:src/syscall_cpp.cpp **** }
 735              		.loc 2 51 22 is_stmt 0
 736 0320 03358500 		ld	a0,8(a0)
 737              	.LVL49:
 738 0324 97000000 		call	_Z10sem_signalP10kSemaphore@plt
 738      E7800000 
 739              	.LVL50:
  52:src/syscall_cpp.cpp **** 
 740              		.loc 2 52 1
 741 032c 83308100 		ld	ra,8(sp)
 742              		.cfi_restore 1
 743 0330 03340100 		ld	s0,0(sp)
GAS LISTING /tmp/cc6B0Lnr.s 			page 17


 744              		.cfi_restore 8
 745              		.cfi_def_cfa 2, 16
 746 0334 13010101 		addi	sp,sp,16
 747              		.cfi_def_cfa_offset 0
 748 0338 67800000 		jr	ra
 749              		.cfi_endproc
 750              	.LFE42:
 752              		.align	2
 753              		.globl	_ZN9Semaphore9timedWaitEm
 755              	_ZN9Semaphore9timedWaitEm:
 756              	.LFB43:
  54:src/syscall_cpp.cpp ****     return sem_timedwait(myHandle,time);
 757              		.loc 2 54 39 is_stmt 1
 758              		.cfi_startproc
 759              	.LVL51:
 760 033c 130101FF 		addi	sp,sp,-16
 761              		.cfi_def_cfa_offset 16
 762 0340 23341100 		sd	ra,8(sp)
 763 0344 23308100 		sd	s0,0(sp)
 764              		.cfi_offset 1, -8
 765              		.cfi_offset 8, -16
 766 0348 13040101 		addi	s0,sp,16
 767              		.cfi_def_cfa 8, 0
  55:src/syscall_cpp.cpp **** }
 768              		.loc 2 55 5
  55:src/syscall_cpp.cpp **** }
 769              		.loc 2 55 25 is_stmt 0
 770 034c 03358500 		ld	a0,8(a0)
 771              	.LVL52:
 772 0350 97000000 		call	_Z13sem_timedwaitP10kSemaphorem@plt
 772      E7800000 
 773              	.LVL53:
  56:src/syscall_cpp.cpp **** 
 774              		.loc 2 56 1
 775 0358 83308100 		ld	ra,8(sp)
 776              		.cfi_restore 1
 777 035c 03340100 		ld	s0,0(sp)
 778              		.cfi_restore 8
 779              		.cfi_def_cfa 2, 16
 780 0360 13010101 		addi	sp,sp,16
 781              		.cfi_def_cfa_offset 0
 782 0364 67800000 		jr	ra
 783              		.cfi_endproc
 784              	.LFE43:
 786              		.align	2
 787              		.globl	_ZN9Semaphore7tryWaitEv
 789              	_ZN9Semaphore7tryWaitEv:
 790              	.LFB44:
  58:src/syscall_cpp.cpp ****     return sem_trywait(myHandle);
 791              		.loc 2 58 26 is_stmt 1
 792              		.cfi_startproc
 793              	.LVL54:
 794 0368 130101FF 		addi	sp,sp,-16
 795              		.cfi_def_cfa_offset 16
 796 036c 23341100 		sd	ra,8(sp)
 797 0370 23308100 		sd	s0,0(sp)
 798              		.cfi_offset 1, -8
GAS LISTING /tmp/cc6B0Lnr.s 			page 18


 799              		.cfi_offset 8, -16
 800 0374 13040101 		addi	s0,sp,16
 801              		.cfi_def_cfa 8, 0
  59:src/syscall_cpp.cpp **** }
 802              		.loc 2 59 5
  59:src/syscall_cpp.cpp **** }
 803              		.loc 2 59 23 is_stmt 0
 804 0378 03358500 		ld	a0,8(a0)
 805              	.LVL55:
 806 037c 97000000 		call	_Z11sem_trywaitP10kSemaphore@plt
 806      E7800000 
 807              	.LVL56:
  60:src/syscall_cpp.cpp **** 
 808              		.loc 2 60 1
 809 0384 83308100 		ld	ra,8(sp)
 810              		.cfi_restore 1
 811 0388 03340100 		ld	s0,0(sp)
 812              		.cfi_restore 8
 813              		.cfi_def_cfa 2, 16
 814 038c 13010101 		addi	sp,sp,16
 815              		.cfi_def_cfa_offset 0
 816 0390 67800000 		jr	ra
 817              		.cfi_endproc
 818              	.LFE44:
 820              		.align	2
 821              		.globl	_ZN14PeriodicThread9terminateEv
 823              	_ZN14PeriodicThread9terminateEv:
 824              	.LFB45:
  62:src/syscall_cpp.cpp ****     period = 0;
 825              		.loc 2 62 34 is_stmt 1
 826              		.cfi_startproc
 827              	.LVL57:
 828 0394 130101FF 		addi	sp,sp,-16
 829              		.cfi_def_cfa_offset 16
 830 0398 23348100 		sd	s0,8(sp)
 831              		.cfi_offset 8, -8
 832 039c 13040101 		addi	s0,sp,16
 833              		.cfi_def_cfa 8, 0
  63:src/syscall_cpp.cpp **** }
 834              		.loc 2 63 5
  63:src/syscall_cpp.cpp **** }
 835              		.loc 2 63 12 is_stmt 0
 836 03a0 23300502 		sd	zero,32(a0)
  64:src/syscall_cpp.cpp **** 
 837              		.loc 2 64 1
 838 03a4 03348100 		ld	s0,8(sp)
 839              		.cfi_restore 8
 840              		.cfi_def_cfa 2, 16
 841 03a8 13010101 		addi	sp,sp,16
 842              		.cfi_def_cfa_offset 0
 843 03ac 67800000 		jr	ra
 844              		.cfi_endproc
 845              	.LFE45:
 847              		.align	2
 848              		.globl	_ZN14PeriodicThreadC2Em
 850              	_ZN14PeriodicThreadC2Em:
 851              	.LFB47:
GAS LISTING /tmp/cc6B0Lnr.s 			page 19


  66:src/syscall_cpp.cpp **** 
 852              		.loc 2 66 1 is_stmt 1
 853              		.cfi_startproc
 854              	.LVL58:
 855 03b0 130101FE 		addi	sp,sp,-32
 856              		.cfi_def_cfa_offset 32
 857 03b4 233C1100 		sd	ra,24(sp)
 858 03b8 23388100 		sd	s0,16(sp)
 859 03bc 23349100 		sd	s1,8(sp)
 860 03c0 23302101 		sd	s2,0(sp)
 861              		.cfi_offset 1, -8
 862              		.cfi_offset 8, -16
 863              		.cfi_offset 9, -24
 864              		.cfi_offset 18, -32
 865 03c4 13040102 		addi	s0,sp,32
 866              		.cfi_def_cfa 8, 0
 867 03c8 93040500 		mv	s1,a0
 868 03cc 13890500 		mv	s2,a1
 869              	.LBB12:
  66:src/syscall_cpp.cpp **** 
 870              		.loc 2 66 60 is_stmt 0
 871 03d0 97000000 		call	_ZN6ThreadC2Ev
 871      E7800000 
 872              	.LVL59:
 873 03d8 97070000 		lla	a5,_ZTV14PeriodicThread+16
 873      93870700 
 874 03e0 23B0F400 		sd	a5,0(s1)
 875 03e4 23B02403 		sd	s2,32(s1)
 876              	.LBE12:
  66:src/syscall_cpp.cpp **** 
 877              		.loc 2 66 63
 878 03e8 83308101 		ld	ra,24(sp)
 879              		.cfi_restore 1
 880 03ec 03340101 		ld	s0,16(sp)
 881              		.cfi_restore 8
 882              		.cfi_def_cfa 2, 32
 883 03f0 83348100 		ld	s1,8(sp)
 884              		.cfi_restore 9
 885              	.LVL60:
 886 03f4 03390100 		ld	s2,0(sp)
 887              		.cfi_restore 18
 888              	.LVL61:
 889 03f8 13010102 		addi	sp,sp,32
 890              		.cfi_def_cfa_offset 0
 891 03fc 67800000 		jr	ra
 892              		.cfi_endproc
 893              	.LFE47:
 895              		.globl	_ZN14PeriodicThreadC1Em
 896              		.set	_ZN14PeriodicThreadC1Em,_ZN14PeriodicThreadC2Em
 897              		.align	2
 898              		.globl	_ZN7Console4getcEv
 900              	_ZN7Console4getcEv:
 901              	.LFB50:
  74:src/syscall_cpp.cpp **** char Console::getc() {
 902              		.loc 2 74 22 is_stmt 1
 903              		.cfi_startproc
 904 0400 130101FF 		addi	sp,sp,-16
GAS LISTING /tmp/cc6B0Lnr.s 			page 20


 905              		.cfi_def_cfa_offset 16
 906 0404 23341100 		sd	ra,8(sp)
 907 0408 23308100 		sd	s0,0(sp)
 908              		.cfi_offset 1, -8
 909              		.cfi_offset 8, -16
 910 040c 13040101 		addi	s0,sp,16
 911              		.cfi_def_cfa 8, 0
  75:src/syscall_cpp.cpp ****     return ::getc();
 912              		.loc 2 75 5
 913              		.loc 2 75 18 is_stmt 0
 914 0410 97000000 		call	_Z4getcv@plt
 914      E7800000 
 915              	.LVL62:
  76:src/syscall_cpp.cpp **** }
 916              		.loc 2 76 1
 917 0418 83308100 		ld	ra,8(sp)
 918              		.cfi_restore 1
 919 041c 03340100 		ld	s0,0(sp)
 920              		.cfi_restore 8
 921              		.cfi_def_cfa 2, 16
 922 0420 13010101 		addi	sp,sp,16
 923              		.cfi_def_cfa_offset 0
 924 0424 67800000 		jr	ra
 925              		.cfi_endproc
 926              	.LFE50:
 928              		.align	2
 929              		.globl	_ZN7Console4putcEc
 931              	_ZN7Console4putcEc:
 932              	.LFB51:
  77:src/syscall_cpp.cpp **** 
  78:src/syscall_cpp.cpp **** void Console::putc(char c) {
 933              		.loc 2 78 28 is_stmt 1
 934              		.cfi_startproc
 935              	.LVL63:
 936 0428 130101FF 		addi	sp,sp,-16
 937              		.cfi_def_cfa_offset 16
 938 042c 23341100 		sd	ra,8(sp)
 939 0430 23308100 		sd	s0,0(sp)
 940              		.cfi_offset 1, -8
 941              		.cfi_offset 8, -16
 942 0434 13040101 		addi	s0,sp,16
 943              		.cfi_def_cfa 8, 0
  79:src/syscall_cpp.cpp ****     ::putc(c);
 944              		.loc 2 79 5
 945              		.loc 2 79 11 is_stmt 0
 946 0438 97000000 		call	_Z4putcc@plt
 946      E7800000 
 947              	.LVL64:
  80:src/syscall_cpp.cpp **** }
 948              		.loc 2 80 1
 949 0440 83308100 		ld	ra,8(sp)
 950              		.cfi_restore 1
 951 0444 03340100 		ld	s0,0(sp)
 952              		.cfi_restore 8
 953              		.cfi_def_cfa 2, 16
 954 0448 13010101 		addi	sp,sp,16
 955              		.cfi_def_cfa_offset 0
GAS LISTING /tmp/cc6B0Lnr.s 			page 21


 956 044c 67800000 		jr	ra
 957              		.cfi_endproc
 958              	.LFE51:
 960              		.weak	_ZTV6Thread
 961              		.section	.data.rel.ro.local._ZTV6Thread,"awG",@progbits,_ZTV6Thread,comdat
 962              		.align	3
 965              	_ZTV6Thread:
 966 0000 00000000 		.dword	0
 966      00000000 
 967 0008 00000000 		.dword	0
 967      00000000 
 968 0010 00000000 		.dword	_ZN6ThreadD1Ev
 968      00000000 
 969 0018 00000000 		.dword	_ZN6ThreadD0Ev
 969      00000000 
 970 0020 00000000 		.dword	_ZN6Thread3runEv
 970      00000000 
 971              		.weak	_ZTV9Semaphore
 972              		.section	.data.rel.ro.local._ZTV9Semaphore,"awG",@progbits,_ZTV9Semaphore,comdat
 973              		.align	3
 976              	_ZTV9Semaphore:
 977 0000 00000000 		.dword	0
 977      00000000 
 978 0008 00000000 		.dword	0
 978      00000000 
 979 0010 00000000 		.dword	_ZN9SemaphoreD1Ev
 979      00000000 
 980 0018 00000000 		.dword	_ZN9SemaphoreD0Ev
 980      00000000 
 981              		.weak	_ZTV14PeriodicThread
 982              		.section	.data.rel.ro.local._ZTV14PeriodicThread,"awG",@progbits,_ZTV14PeriodicThread,comdat
 983              		.align	3
 986              	_ZTV14PeriodicThread:
 987 0000 00000000 		.dword	0
 987      00000000 
 988 0008 00000000 		.dword	0
 988      00000000 
 989 0010 00000000 		.dword	_ZN14PeriodicThreadD1Ev
 989      00000000 
 990 0018 00000000 		.dword	_ZN14PeriodicThreadD0Ev
 990      00000000 
 991 0020 00000000 		.dword	_ZN14PeriodicThread3runEv
 991      00000000 
 992 0028 00000000 		.dword	_ZN14PeriodicThread18periodicActivationEv
 992      00000000 
 993              		.text
 994              	.Letext0:
 995              		.file 3 "src/../h/../h/../lib/hw.h"
 996              		.file 4 "src/../h/../h/syscall_c.hpp"
 4032              		.align	3
 4035              	DW.ref.__gxx_personality_v0:
 4036 0000 00000000 		.dword	__gxx_personality_v0
 4036      00000000 
 4037              		.ident	"GCC: (Ubuntu 9.4.0-1ubuntu1~20.04) 9.4.0"
 4038              		.section	.note.GNU-stack,"",@progbits
GAS LISTING /tmp/cc6B0Lnr.s 			page 22


DEFINED SYMBOLS
                            *ABS*:0000000000000000 syscall_cpp.cpp
     /tmp/cc6B0Lnr.s:10     .text._ZN6Thread3runEv:0000000000000000 _ZN6Thread3runEv
     /tmp/cc6B0Lnr.s:14     .text._ZN6Thread3runEv:0000000000000000 .L0 
     /tmp/cc6B0Lnr.s:16     .text._ZN6Thread3runEv:0000000000000000 .L0 
     /tmp/cc6B0Lnr.s:17     .text._ZN6Thread3runEv:0000000000000004 .L0 
     /tmp/cc6B0Lnr.s:19     .text._ZN6Thread3runEv:0000000000000008 .L0 
     /tmp/cc6B0Lnr.s:21     .text._ZN6Thread3runEv:000000000000000c .L0 
     /tmp/cc6B0Lnr.s:23     .text._ZN6Thread3runEv:000000000000000c .L0 
     /tmp/cc6B0Lnr.s:24     .text._ZN6Thread3runEv:0000000000000010 .L0 
     /tmp/cc6B0Lnr.s:25     .text._ZN6Thread3runEv:0000000000000010 .L0 
     /tmp/cc6B0Lnr.s:27     .text._ZN6Thread3runEv:0000000000000014 .L0 
     /tmp/cc6B0Lnr.s:29     .text._ZN6Thread3runEv:0000000000000018 .L0 
     /tmp/cc6B0Lnr.s:36     .text._ZN14PeriodicThread18periodicActivationEv:0000000000000000 _ZN14PeriodicThread18periodicActivationEv
     /tmp/cc6B0Lnr.s:39     .text._ZN14PeriodicThread18periodicActivationEv:0000000000000000 .L0 
     /tmp/cc6B0Lnr.s:41     .text._ZN14PeriodicThread18periodicActivationEv:0000000000000000 .L0 
     /tmp/cc6B0Lnr.s:42     .text._ZN14PeriodicThread18periodicActivationEv:0000000000000004 .L0 
     /tmp/cc6B0Lnr.s:44     .text._ZN14PeriodicThread18periodicActivationEv:0000000000000008 .L0 
     /tmp/cc6B0Lnr.s:46     .text._ZN14PeriodicThread18periodicActivationEv:000000000000000c .L0 
     /tmp/cc6B0Lnr.s:48     .text._ZN14PeriodicThread18periodicActivationEv:000000000000000c .L0 
     /tmp/cc6B0Lnr.s:49     .text._ZN14PeriodicThread18periodicActivationEv:0000000000000010 .L0 
     /tmp/cc6B0Lnr.s:50     .text._ZN14PeriodicThread18periodicActivationEv:0000000000000010 .L0 
     /tmp/cc6B0Lnr.s:52     .text._ZN14PeriodicThread18periodicActivationEv:0000000000000014 .L0 
     /tmp/cc6B0Lnr.s:54     .text._ZN14PeriodicThread18periodicActivationEv:0000000000000018 .L0 
     /tmp/cc6B0Lnr.s:61     .text:0000000000000000 _ZN6ThreadD2Ev
     /tmp/cc6B0Lnr.s:65     .text:0000000000000000 .L0 
     /tmp/cc6B0Lnr.s:67     .text:0000000000000000 .L0 
     /tmp/cc6B0Lnr.s:68     .text:0000000000000004 .L0 
     /tmp/cc6B0Lnr.s:70     .text:0000000000000008 .L0 
     /tmp/cc6B0Lnr.s:72     .text:000000000000000c .L0 
     /tmp/cc6B0Lnr.s:74     .text:000000000000000c .L0 
     /tmp/cc6B0Lnr.s:75     .text:0000000000000010 .L0 
     /tmp/cc6B0Lnr.s:76     .text:0000000000000010 .L0 
     /tmp/cc6B0Lnr.s:78     .text:0000000000000014 .L0 
     /tmp/cc6B0Lnr.s:80     .text:0000000000000018 .L0 
     /tmp/cc6B0Lnr.s:61     .text:0000000000000000 _ZN6ThreadD1Ev
     /tmp/cc6B0Lnr.s:88     .text:0000000000000018 _ZN6Thread7wrapperEPv
     /tmp/cc6B0Lnr.s:91     .text:0000000000000018 .L0 
     /tmp/cc6B0Lnr.s:93     .text:0000000000000018 .L0 
     /tmp/cc6B0Lnr.s:94     .text:0000000000000018 .L0 
     /tmp/cc6B0Lnr.s:96     .text:000000000000001c .L0 
     /tmp/cc6B0Lnr.s:97     .text:0000000000000020 .L0 
     /tmp/cc6B0Lnr.s:100    .text:0000000000000028 .L0 
     /tmp/cc6B0Lnr.s:101    .text:0000000000000028 .L0 
     /tmp/cc6B0Lnr.s:103    .text:000000000000002c .L0 
     /tmp/cc6B0Lnr.s:105    .text:000000000000002c .L0 
     /tmp/cc6B0Lnr.s:106    .text:000000000000002c .L0 
     /tmp/cc6B0Lnr.s:109    .text:0000000000000034 .L0 
     /tmp/cc6B0Lnr.s:112    .text:0000000000000038 .L0 
     /tmp/cc6B0Lnr.s:113    .text:000000000000003c .L0 
     /tmp/cc6B0Lnr.s:115    .text:0000000000000040 .L0 
     /tmp/cc6B0Lnr.s:116    .text:0000000000000040 .L0 
     /tmp/cc6B0Lnr.s:118    .text:0000000000000044 .L0 
     /tmp/cc6B0Lnr.s:123    .text:000000000000004c .L0 
     /tmp/cc6B0Lnr.s:130    .text._ZN14PeriodicThreadD2Ev:0000000000000000 _ZN14PeriodicThreadD2Ev
     /tmp/cc6B0Lnr.s:133    .text._ZN14PeriodicThreadD2Ev:0000000000000000 .L0 
     /tmp/cc6B0Lnr.s:135    .text._ZN14PeriodicThreadD2Ev:0000000000000000 .L0 
GAS LISTING /tmp/cc6B0Lnr.s 			page 23


     /tmp/cc6B0Lnr.s:136    .text._ZN14PeriodicThreadD2Ev:0000000000000004 .L0 
     /tmp/cc6B0Lnr.s:138    .text._ZN14PeriodicThreadD2Ev:0000000000000008 .L0 
     /tmp/cc6B0Lnr.s:140    .text._ZN14PeriodicThreadD2Ev:000000000000000c .L0 
     /tmp/cc6B0Lnr.s:986    .data.rel.ro.local._ZTV14PeriodicThread:0000000000000000 _ZTV14PeriodicThread
     /tmp/cc6B0Lnr.s:143    .text._ZN14PeriodicThreadD2Ev:000000000000000c .L0 
     /tmp/cc6B0Lnr.s:147    .text._ZN14PeriodicThreadD2Ev:000000000000001c .L0 
     /tmp/cc6B0Lnr.s:148    .text._ZN14PeriodicThreadD2Ev:000000000000001c .L0 
     /tmp/cc6B0Lnr.s:150    .text._ZN14PeriodicThreadD2Ev:0000000000000020 .L0 
     /tmp/cc6B0Lnr.s:152    .text._ZN14PeriodicThreadD2Ev:0000000000000024 .L0 
     /tmp/cc6B0Lnr.s:130    .text._ZN14PeriodicThreadD2Ev:0000000000000000 _ZN14PeriodicThreadD1Ev
     /tmp/cc6B0Lnr.s:161    .text:000000000000004c _ZN14PeriodicThread3runEv
     /tmp/cc6B0Lnr.s:164    .text:000000000000004c .L0 
     /tmp/cc6B0Lnr.s:166    .text:000000000000004c .L0 
     /tmp/cc6B0Lnr.s:167    .text:0000000000000050 .L0 
     /tmp/cc6B0Lnr.s:171    .text:000000000000005c .L0 
     /tmp/cc6B0Lnr.s:172    .text:000000000000005c .L0 
     /tmp/cc6B0Lnr.s:173    .text:000000000000005c .L0 
     /tmp/cc6B0Lnr.s:175    .text:0000000000000060 .L0 
     /tmp/cc6B0Lnr.s:180    .text:0000000000000064 .L0 
     /tmp/cc6B0Lnr.s:181    .text:0000000000000064 .L0 
     /tmp/cc6B0Lnr.s:184    .text:000000000000006c .L0 
     /tmp/cc6B0Lnr.s:185    .text:000000000000006c .L0 
     /tmp/cc6B0Lnr.s:188    .text:0000000000000074 .L0 
     /tmp/cc6B0Lnr.s:192    .text:000000000000007c .L0 
     /tmp/cc6B0Lnr.s:193    .text:000000000000007c .L0 
     /tmp/cc6B0Lnr.s:197    .text:0000000000000088 .L0 
     /tmp/cc6B0Lnr.s:200    .text:000000000000008c .L0 
     /tmp/cc6B0Lnr.s:201    .text:0000000000000090 .L0 
     /tmp/cc6B0Lnr.s:203    .text:0000000000000094 .L0 
     /tmp/cc6B0Lnr.s:204    .text:0000000000000094 .L0 
     /tmp/cc6B0Lnr.s:206    .text:0000000000000098 .L0 
     /tmp/cc6B0Lnr.s:209    .text:000000000000009c .L0 
     /tmp/cc6B0Lnr.s:211    .text:00000000000000a0 .L0 
     /tmp/cc6B0Lnr.s:217    .text:00000000000000a0 _ZN9SemaphoreD2Ev
     /tmp/cc6B0Lnr.s:220    .text:00000000000000a0 .L0 
     /tmp/cc6B0Lnr.s:4035   .data.rel.local.DW.ref.__gxx_personality_v0:0000000000000000 DW.ref.__gxx_personality_v0
     /tmp/cc6B0Lnr.s:224    .text:00000000000000a0 .L0 
     /tmp/cc6B0Lnr.s:225    .text:00000000000000a4 .L0 
     /tmp/cc6B0Lnr.s:228    .text:00000000000000ac .L0 
     /tmp/cc6B0Lnr.s:229    .text:00000000000000ac .L0 
     /tmp/cc6B0Lnr.s:231    .text:00000000000000b0 .L0 
     /tmp/cc6B0Lnr.s:976    .data.rel.ro.local._ZTV9Semaphore:0000000000000000 _ZTV9Semaphore
     /tmp/cc6B0Lnr.s:234    .text:00000000000000b0 .L0 
     /tmp/cc6B0Lnr.s:237    .text:00000000000000bc .L0 
     /tmp/cc6B0Lnr.s:238    .text:00000000000000bc .L0 
     /tmp/cc6B0Lnr.s:244    .text:00000000000000c8 .L0 
     /tmp/cc6B0Lnr.s:245    .text:00000000000000cc .L0 
     /tmp/cc6B0Lnr.s:247    .text:00000000000000d0 .L0 
     /tmp/cc6B0Lnr.s:248    .text:00000000000000d0 .L0 
     /tmp/cc6B0Lnr.s:250    .text:00000000000000d4 .L0 
     /tmp/cc6B0Lnr.s:252    .text:00000000000000d8 .L0 
     /tmp/cc6B0Lnr.s:217    .text:00000000000000a0 _ZN9SemaphoreD1Ev
     /tmp/cc6B0Lnr.s:268    .text:00000000000000d8 _Znwm
     /tmp/cc6B0Lnr.s:271    .text:00000000000000d8 .L0 
     /tmp/cc6B0Lnr.s:273    .text:00000000000000d8 .L0 
     /tmp/cc6B0Lnr.s:274    .text:00000000000000dc .L0 
     /tmp/cc6B0Lnr.s:277    .text:00000000000000e4 .L0 
GAS LISTING /tmp/cc6B0Lnr.s 			page 24


     /tmp/cc6B0Lnr.s:278    .text:00000000000000e4 .L0 
     /tmp/cc6B0Lnr.s:280    .text:00000000000000e8 .L0 
     /tmp/cc6B0Lnr.s:282    .text:00000000000000e8 .L0 
     /tmp/cc6B0Lnr.s:283    .text:00000000000000e8 .L0 
     /tmp/cc6B0Lnr.s:286    .text:00000000000000f0 .L0 
     /tmp/cc6B0Lnr.s:287    .text:00000000000000f4 .L0 
     /tmp/cc6B0Lnr.s:289    .text:00000000000000f8 .L0 
     /tmp/cc6B0Lnr.s:290    .text:00000000000000f8 .L0 
     /tmp/cc6B0Lnr.s:292    .text:00000000000000fc .L0 
     /tmp/cc6B0Lnr.s:294    .text:0000000000000100 .L0 
     /tmp/cc6B0Lnr.s:300    .text:0000000000000100 _ZdlPv
     /tmp/cc6B0Lnr.s:303    .text:0000000000000100 .L0 
     /tmp/cc6B0Lnr.s:305    .text:0000000000000100 .L0 
     /tmp/cc6B0Lnr.s:306    .text:0000000000000104 .L0 
     /tmp/cc6B0Lnr.s:309    .text:000000000000010c .L0 
     /tmp/cc6B0Lnr.s:310    .text:000000000000010c .L0 
     /tmp/cc6B0Lnr.s:312    .text:0000000000000110 .L0 
     /tmp/cc6B0Lnr.s:314    .text:0000000000000110 .L0 
     /tmp/cc6B0Lnr.s:315    .text:0000000000000110 .L0 
     /tmp/cc6B0Lnr.s:318    .text:0000000000000118 .L0 
     /tmp/cc6B0Lnr.s:319    .text:000000000000011c .L0 
     /tmp/cc6B0Lnr.s:321    .text:0000000000000120 .L0 
     /tmp/cc6B0Lnr.s:322    .text:0000000000000120 .L0 
     /tmp/cc6B0Lnr.s:324    .text:0000000000000124 .L0 
     /tmp/cc6B0Lnr.s:326    .text:0000000000000128 .L0 
     /tmp/cc6B0Lnr.s:332    .text:0000000000000128 _ZN6ThreadD0Ev
     /tmp/cc6B0Lnr.s:335    .text:0000000000000128 .L0 
     /tmp/cc6B0Lnr.s:337    .text:0000000000000128 .L0 
     /tmp/cc6B0Lnr.s:338    .text:000000000000012c .L0 
     /tmp/cc6B0Lnr.s:341    .text:0000000000000134 .L0 
     /tmp/cc6B0Lnr.s:342    .text:0000000000000134 .L0 
     /tmp/cc6B0Lnr.s:344    .text:0000000000000138 .L0 
     /tmp/cc6B0Lnr.s:346    .text:0000000000000138 .L0 
     /tmp/cc6B0Lnr.s:349    .text:0000000000000144 .L0 
     /tmp/cc6B0Lnr.s:351    .text:0000000000000148 .L0 
     /tmp/cc6B0Lnr.s:352    .text:0000000000000148 .L0 
     /tmp/cc6B0Lnr.s:354    .text:000000000000014c .L0 
     /tmp/cc6B0Lnr.s:356    .text:0000000000000150 .L0 
     /tmp/cc6B0Lnr.s:362    .text:0000000000000150 _ZN9SemaphoreD0Ev
     /tmp/cc6B0Lnr.s:365    .text:0000000000000150 .L0 
     /tmp/cc6B0Lnr.s:367    .text:0000000000000150 .L0 
     /tmp/cc6B0Lnr.s:368    .text:0000000000000154 .L0 
     /tmp/cc6B0Lnr.s:372    .text:0000000000000160 .L0 
     /tmp/cc6B0Lnr.s:373    .text:0000000000000160 .L0 
     /tmp/cc6B0Lnr.s:374    .text:0000000000000160 .L0 
     /tmp/cc6B0Lnr.s:376    .text:0000000000000164 .L0 
     /tmp/cc6B0Lnr.s:379    .text:0000000000000168 .L0 
     /tmp/cc6B0Lnr.s:385    .text:0000000000000180 .L0 
     /tmp/cc6B0Lnr.s:387    .text:0000000000000184 .L0 
     /tmp/cc6B0Lnr.s:388    .text:0000000000000184 .L0 
     /tmp/cc6B0Lnr.s:390    .text:0000000000000188 .L0 
     /tmp/cc6B0Lnr.s:393    .text:000000000000018c .L0 
     /tmp/cc6B0Lnr.s:395    .text:0000000000000190 .L0 
     /tmp/cc6B0Lnr.s:402    .text._ZN14PeriodicThreadD0Ev:0000000000000000 _ZN14PeriodicThreadD0Ev
     /tmp/cc6B0Lnr.s:405    .text._ZN14PeriodicThreadD0Ev:0000000000000000 .L0 
     /tmp/cc6B0Lnr.s:407    .text._ZN14PeriodicThreadD0Ev:0000000000000000 .L0 
     /tmp/cc6B0Lnr.s:408    .text._ZN14PeriodicThreadD0Ev:0000000000000004 .L0 
GAS LISTING /tmp/cc6B0Lnr.s 			page 25


     /tmp/cc6B0Lnr.s:411    .text._ZN14PeriodicThreadD0Ev:000000000000000c .L0 
     /tmp/cc6B0Lnr.s:412    .text._ZN14PeriodicThreadD0Ev:000000000000000c .L0 
     /tmp/cc6B0Lnr.s:414    .text._ZN14PeriodicThreadD0Ev:0000000000000010 .L0 
     /tmp/cc6B0Lnr.s:419    .text._ZN14PeriodicThreadD0Ev:0000000000000010 .L0 
     /tmp/cc6B0Lnr.s:427    .text._ZN14PeriodicThreadD0Ev:0000000000000028 .L0 
     /tmp/cc6B0Lnr.s:429    .text._ZN14PeriodicThreadD0Ev:000000000000002c .L0 
     /tmp/cc6B0Lnr.s:430    .text._ZN14PeriodicThreadD0Ev:000000000000002c .L0 
     /tmp/cc6B0Lnr.s:432    .text._ZN14PeriodicThreadD0Ev:0000000000000030 .L0 
     /tmp/cc6B0Lnr.s:434    .text._ZN14PeriodicThreadD0Ev:0000000000000034 .L0 
     /tmp/cc6B0Lnr.s:441    .text:0000000000000190 _ZN6ThreadC2EPFvPvES0_
     /tmp/cc6B0Lnr.s:444    .text:0000000000000190 .L0 
     /tmp/cc6B0Lnr.s:446    .text:0000000000000190 .L0 
     /tmp/cc6B0Lnr.s:447    .text:0000000000000194 .L0 
     /tmp/cc6B0Lnr.s:449    .text:0000000000000198 .L0 
     /tmp/cc6B0Lnr.s:451    .text:000000000000019c .L0 
     /tmp/cc6B0Lnr.s:965    .data.rel.ro.local._ZTV6Thread:0000000000000000 _ZTV6Thread
     /tmp/cc6B0Lnr.s:454    .text:000000000000019c .L0 
     /tmp/cc6B0Lnr.s:461    .text:00000000000001b4 .L0 
     /tmp/cc6B0Lnr.s:462    .text:00000000000001b8 .L0 
     /tmp/cc6B0Lnr.s:463    .text:00000000000001b8 .L0 
     /tmp/cc6B0Lnr.s:465    .text:00000000000001bc .L0 
     /tmp/cc6B0Lnr.s:467    .text:00000000000001c0 .L0 
     /tmp/cc6B0Lnr.s:441    .text:0000000000000190 _ZN6ThreadC1EPFvPvES0_
     /tmp/cc6B0Lnr.s:475    .text:00000000000001c0 _ZN6Thread5startEv
     /tmp/cc6B0Lnr.s:478    .text:00000000000001c0 .L0 
     /tmp/cc6B0Lnr.s:480    .text:00000000000001c0 .L0 
     /tmp/cc6B0Lnr.s:481    .text:00000000000001c0 .L0 
     /tmp/cc6B0Lnr.s:482    .text:00000000000001c0 .L0 
     /tmp/cc6B0Lnr.s:484    .text:00000000000001c4 .L0 
     /tmp/cc6B0Lnr.s:486    .text:00000000000001c8 .L0 
     /tmp/cc6B0Lnr.s:487    .text:00000000000001cc .L0 
     /tmp/cc6B0Lnr.s:490    .text:00000000000001d4 .L0 
     /tmp/cc6B0Lnr.s:491    .text:00000000000001d4 .L0 
     /tmp/cc6B0Lnr.s:493    .text:00000000000001d8 .L0 
     /tmp/cc6B0Lnr.s:495    .text:00000000000001d8 .L0 
     /tmp/cc6B0Lnr.s:496    .text:00000000000001d8 .L0 
     /tmp/cc6B0Lnr.s:498    .text:00000000000001dc .L0 
     /tmp/cc6B0Lnr.s:500    .text:00000000000001e0 .L0 
     /tmp/cc6B0Lnr.s:501    .text:00000000000001e0 .L0 
     /tmp/cc6B0Lnr.s:507    .text:00000000000001f0 .L0 
     /tmp/cc6B0Lnr.s:510    .text:00000000000001f4 .L0 
     /tmp/cc6B0Lnr.s:511    .text:00000000000001f8 .L0 
     /tmp/cc6B0Lnr.s:512    .text:00000000000001f8 .L0 
     /tmp/cc6B0Lnr.s:514    .text:00000000000001fc .L0 
     /tmp/cc6B0Lnr.s:515    .text:00000000000001fc .L0 
     /tmp/cc6B0Lnr.s:517    .text:0000000000000200 .L0 
     /tmp/cc6B0Lnr.s:521    .text:0000000000000204 .L0 
     /tmp/cc6B0Lnr.s:523    .text:0000000000000204 .L0 
     /tmp/cc6B0Lnr.s:524    .text:0000000000000204 .L0 
     /tmp/cc6B0Lnr.s:531    .text:000000000000021c .L0 
     /tmp/cc6B0Lnr.s:535    .text:0000000000000224 .L0 
     /tmp/cc6B0Lnr.s:536    .text:0000000000000224 .L0 
     /tmp/cc6B0Lnr.s:537    .text:0000000000000224 .L0 
     /tmp/cc6B0Lnr.s:539    .text:0000000000000224 .L0 
     /tmp/cc6B0Lnr.s:542    .text:0000000000000228 .L0 
     /tmp/cc6B0Lnr.s:543    .text:000000000000022c .L0 
     /tmp/cc6B0Lnr.s:549    .text:000000000000022c _ZN6Thread5sleepEm
GAS LISTING /tmp/cc6B0Lnr.s 			page 26


     /tmp/cc6B0Lnr.s:552    .text:000000000000022c .L0 
     /tmp/cc6B0Lnr.s:554    .text:000000000000022c .L0 
     /tmp/cc6B0Lnr.s:555    .text:0000000000000230 .L0 
     /tmp/cc6B0Lnr.s:558    .text:0000000000000238 .L0 
     /tmp/cc6B0Lnr.s:559    .text:0000000000000238 .L0 
     /tmp/cc6B0Lnr.s:561    .text:000000000000023c .L0 
     /tmp/cc6B0Lnr.s:563    .text:000000000000023c .L0 
     /tmp/cc6B0Lnr.s:564    .text:000000000000023c .L0 
     /tmp/cc6B0Lnr.s:567    .text:0000000000000244 .L0 
     /tmp/cc6B0Lnr.s:568    .text:0000000000000248 .L0 
     /tmp/cc6B0Lnr.s:570    .text:000000000000024c .L0 
     /tmp/cc6B0Lnr.s:571    .text:000000000000024c .L0 
     /tmp/cc6B0Lnr.s:573    .text:0000000000000250 .L0 
     /tmp/cc6B0Lnr.s:575    .text:0000000000000254 .L0 
     /tmp/cc6B0Lnr.s:581    .text:0000000000000254 _ZN6Thread8dispatchEv
     /tmp/cc6B0Lnr.s:584    .text:0000000000000254 .L0 
     /tmp/cc6B0Lnr.s:585    .text:0000000000000254 .L0 
     /tmp/cc6B0Lnr.s:586    .text:0000000000000258 .L0 
     /tmp/cc6B0Lnr.s:589    .text:0000000000000260 .L0 
     /tmp/cc6B0Lnr.s:590    .text:0000000000000260 .L0 
     /tmp/cc6B0Lnr.s:592    .text:0000000000000264 .L0 
     /tmp/cc6B0Lnr.s:594    .text:0000000000000264 .L0 
     /tmp/cc6B0Lnr.s:595    .text:0000000000000264 .L0 
     /tmp/cc6B0Lnr.s:598    .text:000000000000026c .L0 
     /tmp/cc6B0Lnr.s:599    .text:0000000000000270 .L0 
     /tmp/cc6B0Lnr.s:601    .text:0000000000000274 .L0 
     /tmp/cc6B0Lnr.s:602    .text:0000000000000274 .L0 
     /tmp/cc6B0Lnr.s:604    .text:0000000000000278 .L0 
     /tmp/cc6B0Lnr.s:606    .text:000000000000027c .L0 
     /tmp/cc6B0Lnr.s:612    .text:000000000000027c _ZN6ThreadC2Ev
     /tmp/cc6B0Lnr.s:615    .text:000000000000027c .L0 
     /tmp/cc6B0Lnr.s:617    .text:000000000000027c .L0 
     /tmp/cc6B0Lnr.s:618    .text:0000000000000280 .L0 
     /tmp/cc6B0Lnr.s:620    .text:0000000000000284 .L0 
     /tmp/cc6B0Lnr.s:622    .text:0000000000000288 .L0 
     /tmp/cc6B0Lnr.s:625    .text:0000000000000288 .L0 
     /tmp/cc6B0Lnr.s:632    .text:00000000000002a0 .L0 
     /tmp/cc6B0Lnr.s:633    .text:00000000000002a4 .L0 
     /tmp/cc6B0Lnr.s:634    .text:00000000000002a4 .L0 
     /tmp/cc6B0Lnr.s:636    .text:00000000000002a8 .L0 
     /tmp/cc6B0Lnr.s:638    .text:00000000000002ac .L0 
     /tmp/cc6B0Lnr.s:612    .text:000000000000027c _ZN6ThreadC1Ev
     /tmp/cc6B0Lnr.s:646    .text:00000000000002ac _ZN9SemaphoreC2Ej
     /tmp/cc6B0Lnr.s:649    .text:00000000000002ac .L0 
     /tmp/cc6B0Lnr.s:651    .text:00000000000002ac .L0 
     /tmp/cc6B0Lnr.s:652    .text:00000000000002b0 .L0 
     /tmp/cc6B0Lnr.s:655    .text:00000000000002b8 .L0 
     /tmp/cc6B0Lnr.s:656    .text:00000000000002b8 .L0 
     /tmp/cc6B0Lnr.s:658    .text:00000000000002bc .L0 
     /tmp/cc6B0Lnr.s:661    .text:00000000000002bc .L0 
     /tmp/cc6B0Lnr.s:664    .text:00000000000002c8 .L0 
     /tmp/cc6B0Lnr.s:665    .text:00000000000002c8 .L0 
     /tmp/cc6B0Lnr.s:671    .text:00000000000002d4 .L0 
     /tmp/cc6B0Lnr.s:672    .text:00000000000002d8 .L0 
     /tmp/cc6B0Lnr.s:674    .text:00000000000002dc .L0 
     /tmp/cc6B0Lnr.s:675    .text:00000000000002dc .L0 
     /tmp/cc6B0Lnr.s:677    .text:00000000000002e0 .L0 
GAS LISTING /tmp/cc6B0Lnr.s 			page 27


     /tmp/cc6B0Lnr.s:679    .text:00000000000002e4 .L0 
     /tmp/cc6B0Lnr.s:646    .text:00000000000002ac _ZN9SemaphoreC1Ej
     /tmp/cc6B0Lnr.s:687    .text:00000000000002e4 _ZN9Semaphore4waitEv
     /tmp/cc6B0Lnr.s:690    .text:00000000000002e4 .L0 
     /tmp/cc6B0Lnr.s:692    .text:00000000000002e4 .L0 
     /tmp/cc6B0Lnr.s:693    .text:00000000000002e8 .L0 
     /tmp/cc6B0Lnr.s:696    .text:00000000000002f0 .L0 
     /tmp/cc6B0Lnr.s:697    .text:00000000000002f0 .L0 
     /tmp/cc6B0Lnr.s:699    .text:00000000000002f4 .L0 
     /tmp/cc6B0Lnr.s:701    .text:00000000000002f4 .L0 
     /tmp/cc6B0Lnr.s:702    .text:00000000000002f4 .L0 
     /tmp/cc6B0Lnr.s:707    .text:0000000000000300 .L0 
     /tmp/cc6B0Lnr.s:708    .text:0000000000000304 .L0 
     /tmp/cc6B0Lnr.s:710    .text:0000000000000308 .L0 
     /tmp/cc6B0Lnr.s:711    .text:0000000000000308 .L0 
     /tmp/cc6B0Lnr.s:713    .text:000000000000030c .L0 
     /tmp/cc6B0Lnr.s:715    .text:0000000000000310 .L0 
     /tmp/cc6B0Lnr.s:721    .text:0000000000000310 _ZN9Semaphore6signalEv
     /tmp/cc6B0Lnr.s:724    .text:0000000000000310 .L0 
     /tmp/cc6B0Lnr.s:726    .text:0000000000000310 .L0 
     /tmp/cc6B0Lnr.s:727    .text:0000000000000314 .L0 
     /tmp/cc6B0Lnr.s:730    .text:000000000000031c .L0 
     /tmp/cc6B0Lnr.s:731    .text:000000000000031c .L0 
     /tmp/cc6B0Lnr.s:733    .text:0000000000000320 .L0 
     /tmp/cc6B0Lnr.s:735    .text:0000000000000320 .L0 
     /tmp/cc6B0Lnr.s:736    .text:0000000000000320 .L0 
     /tmp/cc6B0Lnr.s:741    .text:000000000000032c .L0 
     /tmp/cc6B0Lnr.s:742    .text:0000000000000330 .L0 
     /tmp/cc6B0Lnr.s:744    .text:0000000000000334 .L0 
     /tmp/cc6B0Lnr.s:745    .text:0000000000000334 .L0 
     /tmp/cc6B0Lnr.s:747    .text:0000000000000338 .L0 
     /tmp/cc6B0Lnr.s:749    .text:000000000000033c .L0 
     /tmp/cc6B0Lnr.s:755    .text:000000000000033c _ZN9Semaphore9timedWaitEm
     /tmp/cc6B0Lnr.s:758    .text:000000000000033c .L0 
     /tmp/cc6B0Lnr.s:760    .text:000000000000033c .L0 
     /tmp/cc6B0Lnr.s:761    .text:0000000000000340 .L0 
     /tmp/cc6B0Lnr.s:764    .text:0000000000000348 .L0 
     /tmp/cc6B0Lnr.s:765    .text:0000000000000348 .L0 
     /tmp/cc6B0Lnr.s:767    .text:000000000000034c .L0 
     /tmp/cc6B0Lnr.s:769    .text:000000000000034c .L0 
     /tmp/cc6B0Lnr.s:770    .text:000000000000034c .L0 
     /tmp/cc6B0Lnr.s:775    .text:0000000000000358 .L0 
     /tmp/cc6B0Lnr.s:776    .text:000000000000035c .L0 
     /tmp/cc6B0Lnr.s:778    .text:0000000000000360 .L0 
     /tmp/cc6B0Lnr.s:779    .text:0000000000000360 .L0 
     /tmp/cc6B0Lnr.s:781    .text:0000000000000364 .L0 
     /tmp/cc6B0Lnr.s:783    .text:0000000000000368 .L0 
     /tmp/cc6B0Lnr.s:789    .text:0000000000000368 _ZN9Semaphore7tryWaitEv
     /tmp/cc6B0Lnr.s:792    .text:0000000000000368 .L0 
     /tmp/cc6B0Lnr.s:794    .text:0000000000000368 .L0 
     /tmp/cc6B0Lnr.s:795    .text:000000000000036c .L0 
     /tmp/cc6B0Lnr.s:798    .text:0000000000000374 .L0 
     /tmp/cc6B0Lnr.s:799    .text:0000000000000374 .L0 
     /tmp/cc6B0Lnr.s:801    .text:0000000000000378 .L0 
     /tmp/cc6B0Lnr.s:803    .text:0000000000000378 .L0 
     /tmp/cc6B0Lnr.s:804    .text:0000000000000378 .L0 
     /tmp/cc6B0Lnr.s:809    .text:0000000000000384 .L0 
GAS LISTING /tmp/cc6B0Lnr.s 			page 28


     /tmp/cc6B0Lnr.s:810    .text:0000000000000388 .L0 
     /tmp/cc6B0Lnr.s:812    .text:000000000000038c .L0 
     /tmp/cc6B0Lnr.s:813    .text:000000000000038c .L0 
     /tmp/cc6B0Lnr.s:815    .text:0000000000000390 .L0 
     /tmp/cc6B0Lnr.s:817    .text:0000000000000394 .L0 
     /tmp/cc6B0Lnr.s:823    .text:0000000000000394 _ZN14PeriodicThread9terminateEv
     /tmp/cc6B0Lnr.s:826    .text:0000000000000394 .L0 
     /tmp/cc6B0Lnr.s:828    .text:0000000000000394 .L0 
     /tmp/cc6B0Lnr.s:829    .text:0000000000000398 .L0 
     /tmp/cc6B0Lnr.s:831    .text:000000000000039c .L0 
     /tmp/cc6B0Lnr.s:833    .text:00000000000003a0 .L0 
     /tmp/cc6B0Lnr.s:835    .text:00000000000003a0 .L0 
     /tmp/cc6B0Lnr.s:836    .text:00000000000003a0 .L0 
     /tmp/cc6B0Lnr.s:838    .text:00000000000003a4 .L0 
     /tmp/cc6B0Lnr.s:839    .text:00000000000003a8 .L0 
     /tmp/cc6B0Lnr.s:840    .text:00000000000003a8 .L0 
     /tmp/cc6B0Lnr.s:842    .text:00000000000003ac .L0 
     /tmp/cc6B0Lnr.s:844    .text:00000000000003b0 .L0 
     /tmp/cc6B0Lnr.s:850    .text:00000000000003b0 _ZN14PeriodicThreadC2Em
     /tmp/cc6B0Lnr.s:853    .text:00000000000003b0 .L0 
     /tmp/cc6B0Lnr.s:855    .text:00000000000003b0 .L0 
     /tmp/cc6B0Lnr.s:856    .text:00000000000003b4 .L0 
     /tmp/cc6B0Lnr.s:861    .text:00000000000003c4 .L0 
     /tmp/cc6B0Lnr.s:862    .text:00000000000003c4 .L0 
     /tmp/cc6B0Lnr.s:863    .text:00000000000003c4 .L0 
     /tmp/cc6B0Lnr.s:864    .text:00000000000003c4 .L0 
     /tmp/cc6B0Lnr.s:866    .text:00000000000003c8 .L0 
     /tmp/cc6B0Lnr.s:871    .text:00000000000003d0 .L0 
     /tmp/cc6B0Lnr.s:878    .text:00000000000003e8 .L0 
     /tmp/cc6B0Lnr.s:879    .text:00000000000003ec .L0 
     /tmp/cc6B0Lnr.s:881    .text:00000000000003f0 .L0 
     /tmp/cc6B0Lnr.s:882    .text:00000000000003f0 .L0 
     /tmp/cc6B0Lnr.s:884    .text:00000000000003f4 .L0 
     /tmp/cc6B0Lnr.s:887    .text:00000000000003f8 .L0 
     /tmp/cc6B0Lnr.s:890    .text:00000000000003fc .L0 
     /tmp/cc6B0Lnr.s:892    .text:0000000000000400 .L0 
     /tmp/cc6B0Lnr.s:850    .text:00000000000003b0 _ZN14PeriodicThreadC1Em
     /tmp/cc6B0Lnr.s:900    .text:0000000000000400 _ZN7Console4getcEv
     /tmp/cc6B0Lnr.s:903    .text:0000000000000400 .L0 
     /tmp/cc6B0Lnr.s:904    .text:0000000000000400 .L0 
     /tmp/cc6B0Lnr.s:905    .text:0000000000000404 .L0 
     /tmp/cc6B0Lnr.s:908    .text:000000000000040c .L0 
     /tmp/cc6B0Lnr.s:909    .text:000000000000040c .L0 
     /tmp/cc6B0Lnr.s:911    .text:0000000000000410 .L0 
     /tmp/cc6B0Lnr.s:913    .text:0000000000000410 .L0 
     /tmp/cc6B0Lnr.s:914    .text:0000000000000410 .L0 
     /tmp/cc6B0Lnr.s:917    .text:0000000000000418 .L0 
     /tmp/cc6B0Lnr.s:918    .text:000000000000041c .L0 
     /tmp/cc6B0Lnr.s:920    .text:0000000000000420 .L0 
     /tmp/cc6B0Lnr.s:921    .text:0000000000000420 .L0 
     /tmp/cc6B0Lnr.s:923    .text:0000000000000424 .L0 
     /tmp/cc6B0Lnr.s:925    .text:0000000000000428 .L0 
     /tmp/cc6B0Lnr.s:931    .text:0000000000000428 _ZN7Console4putcEc
     /tmp/cc6B0Lnr.s:934    .text:0000000000000428 .L0 
     /tmp/cc6B0Lnr.s:936    .text:0000000000000428 .L0 
     /tmp/cc6B0Lnr.s:937    .text:000000000000042c .L0 
     /tmp/cc6B0Lnr.s:940    .text:0000000000000434 .L0 
GAS LISTING /tmp/cc6B0Lnr.s 			page 29


     /tmp/cc6B0Lnr.s:941    .text:0000000000000434 .L0 
     /tmp/cc6B0Lnr.s:943    .text:0000000000000438 .L0 
     /tmp/cc6B0Lnr.s:945    .text:0000000000000438 .L0 
     /tmp/cc6B0Lnr.s:946    .text:0000000000000438 .L0 
     /tmp/cc6B0Lnr.s:949    .text:0000000000000440 .L0 
     /tmp/cc6B0Lnr.s:950    .text:0000000000000444 .L0 
     /tmp/cc6B0Lnr.s:952    .text:0000000000000448 .L0 
     /tmp/cc6B0Lnr.s:953    .text:0000000000000448 .L0 
     /tmp/cc6B0Lnr.s:955    .text:000000000000044c .L0 
     /tmp/cc6B0Lnr.s:957    .text:0000000000000450 .L0 
     /tmp/cc6B0Lnr.s:32     .text._ZN6Thread3runEv:0000000000000018 .L0 
     /tmp/cc6B0Lnr.s:57     .text._ZN14PeriodicThread18periodicActivationEv:0000000000000018 .L0 
     /tmp/cc6B0Lnr.s:997    .text:0000000000000450 .L0 
     /tmp/cc6B0Lnr.s:157    .text._ZN14PeriodicThreadD2Ev:0000000000000024 .L0 
     /tmp/cc6B0Lnr.s:437    .text._ZN14PeriodicThreadD0Ev:0000000000000034 .L0 
     /tmp/cc6B0Lnr.s:234    .text:00000000000000b0 .L0 
     /tmp/cc6B0Lnr.s:454    .text:000000000000019c .L0 
     /tmp/cc6B0Lnr.s:525    .text:0000000000000208 .L0 
     /tmp/cc6B0Lnr.s:625    .text:0000000000000288 .L0 
     /tmp/cc6B0Lnr.s:661    .text:00000000000002bc .L0 
     /tmp/cc6B0Lnr.s:873    .text:00000000000003d8 .L0 
     /tmp/cc6B0Lnr.s:121    .text:0000000000000048 .L10
     /tmp/cc6B0Lnr.s:198    .text:000000000000008c .L15
     /tmp/cc6B0Lnr.s:178    .text:0000000000000064 .L17
     /tmp/cc6B0Lnr.s:534    .text:0000000000000224 .L36
     /tmp/cc6B0Lnr.s:520    .text:0000000000000204 .L41
     /tmp/cc6B0Lnr.s:508    .text:00000000000001f4 .L34
     /tmp/cc6B0Lnr.s:143    .text._ZN14PeriodicThreadD2Ev:000000000000000c .L0 
     /tmp/cc6B0Lnr.s:419    .text._ZN14PeriodicThreadD0Ev:0000000000000010 .L0 
     /tmp/cc6B0Lnr.s:2393   .debug_abbrev:0000000000000000 .Ldebug_abbrev0
     /tmp/cc6B0Lnr.s:3989   .debug_str:0000000000000616 .LASF108
     /tmp/cc6B0Lnr.s:3967   .debug_str:000000000000056b .LASF109
     /tmp/cc6B0Lnr.s:3859   .debug_str:00000000000001ff .LASF110
     /tmp/cc6B0Lnr.s:3775   .debug_ranges:0000000000000000 .Ldebug_ranges0
     /tmp/cc6B0Lnr.s:3789   .debug_line:0000000000000000 .Ldebug_line0
     /tmp/cc6B0Lnr.s:3919   .debug_str:00000000000003ed .LASF0
     /tmp/cc6B0Lnr.s:3933   .debug_str:0000000000000457 .LASF1
     /tmp/cc6B0Lnr.s:3909   .debug_str:0000000000000398 .LASF2
     /tmp/cc6B0Lnr.s:3885   .debug_str:00000000000002ea .LASF4
     /tmp/cc6B0Lnr.s:3975   .debug_str:00000000000005a9 .LASF3
     /tmp/cc6B0Lnr.s:3811   .debug_str:0000000000000095 .LASF5
     /tmp/cc6B0Lnr.s:3843   .debug_str:00000000000001ad .LASF6
     /tmp/cc6B0Lnr.s:3939   .debug_str:000000000000049e .LASF7
     /tmp/cc6B0Lnr.s:3917   .debug_str:00000000000003da .LASF8
     /tmp/cc6B0Lnr.s:4005   .debug_str:000000000000074a .LASF9
     /tmp/cc6B0Lnr.s:3871   .debug_str:0000000000000279 .LASF10
     /tmp/cc6B0Lnr.s:3949   .debug_str:00000000000004da .LASF11
     /tmp/cc6B0Lnr.s:3991   .debug_str:00000000000006da .LASF12
     /tmp/cc6B0Lnr.s:3813   .debug_str:000000000000009c .LASF13
     /tmp/cc6B0Lnr.s:3795   .debug_str:0000000000000013 .LASF14
     /tmp/cc6B0Lnr.s:3825   .debug_str:00000000000000f3 .LASF15
     /tmp/cc6B0Lnr.s:3971   .debug_str:000000000000058a .LASF16
     /tmp/cc6B0Lnr.s:3837   .debug_str:000000000000017a .LASF17
     /tmp/cc6B0Lnr.s:3857   .debug_str:00000000000001fa .LASF18
     /tmp/cc6B0Lnr.s:3791   .debug_str:0000000000000000 .LASF19
     /tmp/cc6B0Lnr.s:3849   .debug_str:00000000000001d8 .LASF20
     /tmp/cc6B0Lnr.s:3929   .debug_str:0000000000000446 .LASF21
GAS LISTING /tmp/cc6B0Lnr.s 			page 30


     /tmp/cc6B0Lnr.s:3881   .debug_str:00000000000002d0 .LASF111
     /tmp/cc6B0Lnr.s:3797   .debug_str:0000000000000023 .LASF85
     /tmp/cc6B0Lnr.s:3819   .debug_str:00000000000000b6 .LASF112
     /tmp/cc6B0Lnr.s:3913   .debug_str:00000000000003c3 .LASF23
     /tmp/cc6B0Lnr.s:3935   .debug_str:000000000000046a .LASF42
     /tmp/cc6B0Lnr.s:3941   .debug_str:00000000000004b1 .LASF22
     /tmp/cc6B0Lnr.s:3945   .debug_str:00000000000004bd .LASF24
     /tmp/cc6B0Lnr.s:3801   .debug_str:0000000000000037 .LASF25
     /tmp/cc6B0Lnr.s:4015   .debug_str:0000000000000784 .LASF26
     /tmp/cc6B0Lnr.s:3803   .debug_str:0000000000000051 .LASF27
     /tmp/cc6B0Lnr.s:3985   .debug_str:00000000000005e7 .LASF28
     /tmp/cc6B0Lnr.s:3807   .debug_str:000000000000006d .LASF29
     /tmp/cc6B0Lnr.s:3891   .debug_str:0000000000000310 .LASF30
     /tmp/cc6B0Lnr.s:3829   .debug_str:0000000000000108 .LASF113
     /tmp/cc6B0Lnr.s:3875   .debug_str:000000000000029a .LASF37
     /tmp/cc6B0Lnr.s:3887   .debug_str:00000000000002f1 .LASF39
     /tmp/cc6B0Lnr.s:4021   .debug_str:00000000000007c4 .LASF114
     /tmp/cc6B0Lnr.s:3889   .debug_str:00000000000002f8 .LASF115
     /tmp/cc6B0Lnr.s:3999   .debug_str:000000000000072c .LASF31
     /tmp/cc6B0Lnr.s:3915   .debug_str:00000000000003c8 .LASF32
     /tmp/cc6B0Lnr.s:3907   .debug_str:000000000000038b .LASF47
     /tmp/cc6B0Lnr.s:3953   .debug_str:00000000000004ff .LASF33
     /tmp/cc6B0Lnr.s:3895   .debug_str:000000000000032d .LASF50
     /tmp/cc6B0Lnr.s:3927   .debug_str:0000000000000437 .LASF52
     /tmp/cc6B0Lnr.s:3931   .debug_str:0000000000000451 .LASF54
     /tmp/cc6B0Lnr.s:3869   .debug_str:0000000000000266 .LASF56
     /tmp/cc6B0Lnr.s:3921   .debug_str:00000000000003fa .LASF116
     /tmp/cc6B0Lnr.s:3865   .debug_str:0000000000000238 .LASF117
     /tmp/cc6B0Lnr.s:4025   .debug_str:00000000000007dd .LASF34
     /tmp/cc6B0Lnr.s:3873   .debug_str:0000000000000287 .LASF35
     /tmp/cc6B0Lnr.s:3961   .debug_str:000000000000053a .LASF36
     /tmp/cc6B0Lnr.s:3905   .debug_str:000000000000037a .LASF38
     /tmp/cc6B0Lnr.s:4023   .debug_str:00000000000007d4 .LASF40
     /tmp/cc6B0Lnr.s:3983   .debug_str:00000000000005df .LASF41
     /tmp/cc6B0Lnr.s:3951   .debug_str:00000000000004e9 .LASF43
     /tmp/cc6B0Lnr.s:3817   .debug_str:00000000000000b1 .LASF44
     /tmp/cc6B0Lnr.s:3793   .debug_str:0000000000000009 .LASF45
     /tmp/cc6B0Lnr.s:3897   .debug_str:0000000000000335 .LASF46
     /tmp/cc6B0Lnr.s:3809   .debug_str:0000000000000085 .LASF48
     /tmp/cc6B0Lnr.s:3995   .debug_str:0000000000000701 .LASF49
     /tmp/cc6B0Lnr.s:3965   .debug_str:0000000000000560 .LASF51
     /tmp/cc6B0Lnr.s:3821   .debug_str:00000000000000c9 .LASF53
     /tmp/cc6B0Lnr.s:3855   .debug_str:00000000000001f5 .LASF55
     /tmp/cc6B0Lnr.s:4019   .debug_str:00000000000007af .LASF57
     /tmp/cc6B0Lnr.s:3943   .debug_str:00000000000004b6 .LASF58
     /tmp/cc6B0Lnr.s:3963   .debug_str:0000000000000549 .LASF59
     /tmp/cc6B0Lnr.s:3959   .debug_str:0000000000000530 .LASF60
     /tmp/cc6B0Lnr.s:3899   .debug_str:000000000000034a .LASF61
     /tmp/cc6B0Lnr.s:4011   .debug_str:000000000000076f .LASF62
     /tmp/cc6B0Lnr.s:3823   .debug_str:00000000000000db .LASF63
     /tmp/cc6B0Lnr.s:4007   .debug_str:000000000000075a .LASF118
     /tmp/cc6B0Lnr.s:3957   .debug_str:000000000000052b .LASF64
     /tmp/cc6B0Lnr.s:3979   .debug_str:00000000000005c5 .LASF65
     /tmp/cc6B0Lnr.s:3993   .debug_str:00000000000006e9 .LASF66
     /tmp/cc6B0Lnr.s:403    .text._ZN14PeriodicThreadD0Ev:0000000000000000 .LFB55
     /tmp/cc6B0Lnr.s:435    .text._ZN14PeriodicThreadD0Ev:0000000000000034 .LFE55
     /tmp/cc6B0Lnr.s:3408   .debug_loc:0000000000000000 .LLST7
GAS LISTING /tmp/cc6B0Lnr.s 			page 31


     /tmp/cc6B0Lnr.s:416    .text._ZN14PeriodicThreadD0Ev:0000000000000010 .LBB7
     /tmp/cc6B0Lnr.s:423    .text._ZN14PeriodicThreadD0Ev:000000000000001c .LBE7
     /tmp/cc6B0Lnr.s:3422   .debug_loc:0000000000000039 .LLST8
     /tmp/cc6B0Lnr.s:425    .text._ZN14PeriodicThreadD0Ev:0000000000000024 .LVL28
     /tmp/cc6B0Lnr.s:3923   .debug_str:0000000000000403 .LASF67
     /tmp/cc6B0Lnr.s:131    .text._ZN14PeriodicThreadD2Ev:0000000000000000 .LFB53
     /tmp/cc6B0Lnr.s:153    .text._ZN14PeriodicThreadD2Ev:0000000000000024 .LFE53
     /tmp/cc6B0Lnr.s:932    .text:0000000000000428 .LFB51
     /tmp/cc6B0Lnr.s:958    .text:0000000000000450 .LFE51
     /tmp/cc6B0Lnr.s:3429   .debug_loc:000000000000005c .LLST20
     /tmp/cc6B0Lnr.s:947    .text:0000000000000440 .LVL64
     /tmp/cc6B0Lnr.s:901    .text:0000000000000400 .LFB50
     /tmp/cc6B0Lnr.s:926    .text:0000000000000428 .LFE50
     /tmp/cc6B0Lnr.s:915    .text:0000000000000418 .LVL62
     /tmp/cc6B0Lnr.s:162    .text:000000000000004c .LFB49
     /tmp/cc6B0Lnr.s:212    .text:00000000000000a0 .LFE49
     /tmp/cc6B0Lnr.s:3443   .debug_loc:0000000000000095 .LLST1
     /tmp/cc6B0Lnr.s:190    .text:000000000000007c .LVL9
     /tmp/cc6B0Lnr.s:195    .text:0000000000000088 .LVL10
     /tmp/cc6B0Lnr.s:3867   .debug_str:000000000000024e .LASF68
     /tmp/cc6B0Lnr.s:851    .text:00000000000003b0 .LFB47
     /tmp/cc6B0Lnr.s:893    .text:0000000000000400 .LFE47
     /tmp/cc6B0Lnr.s:3461   .debug_loc:00000000000000e1 .LLST18
     /tmp/cc6B0Lnr.s:3479   .debug_loc:000000000000012d .LLST19
     /tmp/cc6B0Lnr.s:872    .text:00000000000003d8 .LVL59
     /tmp/cc6B0Lnr.s:824    .text:0000000000000394 .LFB45
     /tmp/cc6B0Lnr.s:845    .text:00000000000003b0 .LFE45
     /tmp/cc6B0Lnr.s:790    .text:0000000000000368 .LFB44
     /tmp/cc6B0Lnr.s:818    .text:0000000000000394 .LFE44
     /tmp/cc6B0Lnr.s:3498   .debug_loc:000000000000017a .LLST17
     /tmp/cc6B0Lnr.s:807    .text:0000000000000384 .LVL56
     /tmp/cc6B0Lnr.s:756    .text:000000000000033c .LFB43
     /tmp/cc6B0Lnr.s:784    .text:0000000000000368 .LFE43
     /tmp/cc6B0Lnr.s:3512   .debug_loc:00000000000001b3 .LLST15
     /tmp/cc6B0Lnr.s:4009   .debug_str:000000000000076a .LASF69
     /tmp/cc6B0Lnr.s:3526   .debug_loc:00000000000001ec .LLST16
     /tmp/cc6B0Lnr.s:773    .text:0000000000000358 .LVL53
     /tmp/cc6B0Lnr.s:722    .text:0000000000000310 .LFB42
     /tmp/cc6B0Lnr.s:750    .text:000000000000033c .LFE42
     /tmp/cc6B0Lnr.s:3540   .debug_loc:0000000000000225 .LLST14
     /tmp/cc6B0Lnr.s:739    .text:000000000000032c .LVL50
     /tmp/cc6B0Lnr.s:688    .text:00000000000002e4 .LFB41
     /tmp/cc6B0Lnr.s:716    .text:0000000000000310 .LFE41
     /tmp/cc6B0Lnr.s:3554   .debug_loc:000000000000025e .LLST13
     /tmp/cc6B0Lnr.s:705    .text:0000000000000300 .LVL47
     /tmp/cc6B0Lnr.s:3863   .debug_str:0000000000000226 .LASF70
     /tmp/cc6B0Lnr.s:363    .text:0000000000000150 .LFB40
     /tmp/cc6B0Lnr.s:396    .text:0000000000000190 .LFE40
     /tmp/cc6B0Lnr.s:3568   .debug_loc:0000000000000297 .LLST6
     /tmp/cc6B0Lnr.s:380    .text:0000000000000170 .LVL22
     /tmp/cc6B0Lnr.s:383    .text:000000000000017c .LVL23
     /tmp/cc6B0Lnr.s:3883   .debug_str:00000000000002d8 .LASF71
     /tmp/cc6B0Lnr.s:218    .text:00000000000000a0 .LFB38
     /tmp/cc6B0Lnr.s:253    .text:00000000000000d8 .LFE38
     /tmp/cc6B0Lnr.s:3586   .debug_loc:00000000000002e3 .LLST2
     /tmp/cc6B0Lnr.s:241    .text:00000000000000c8 .LVL14
     /tmp/cc6B0Lnr.s:3877   .debug_str:00000000000002b4 .LASF72
GAS LISTING /tmp/cc6B0Lnr.s 			page 32


     /tmp/cc6B0Lnr.s:3805   .debug_str:000000000000005b .LASF73
     /tmp/cc6B0Lnr.s:647    .text:00000000000002ac .LFB35
     /tmp/cc6B0Lnr.s:680    .text:00000000000002e4 .LFE35
     /tmp/cc6B0Lnr.s:3600   .debug_loc:000000000000031c .LLST11
     /tmp/cc6B0Lnr.s:3620   .debug_loc:000000000000036a .LLST12
     /tmp/cc6B0Lnr.s:668    .text:00000000000002d4 .LVL44
     /tmp/cc6B0Lnr.s:89     .text:0000000000000018 .LFB33
     /tmp/cc6B0Lnr.s:124    .text:000000000000004c .LFE33
     /tmp/cc6B0Lnr.s:3634   .debug_loc:00000000000003a3 .LLST0
     /tmp/cc6B0Lnr.s:110    .text:0000000000000038 .LVL4
     /tmp/cc6B0Lnr.s:3841   .debug_str:000000000000019e .LASF74
     /tmp/cc6B0Lnr.s:613    .text:000000000000027c .LFB31
     /tmp/cc6B0Lnr.s:639    .text:00000000000002ac .LFE31
     /tmp/cc6B0Lnr.s:582    .text:0000000000000254 .LFB29
     /tmp/cc6B0Lnr.s:607    .text:000000000000027c .LFE29
     /tmp/cc6B0Lnr.s:596    .text:000000000000026c .LVL40
     /tmp/cc6B0Lnr.s:550    .text:000000000000022c .LFB28
     /tmp/cc6B0Lnr.s:576    .text:0000000000000254 .LFE28
     /tmp/cc6B0Lnr.s:3652   .debug_loc:00000000000003ef .LLST10
     /tmp/cc6B0Lnr.s:565    .text:0000000000000244 .LVL39
     /tmp/cc6B0Lnr.s:476    .text:00000000000001c0 .LFB27
     /tmp/cc6B0Lnr.s:544    .text:000000000000022c .LFE27
     /tmp/cc6B0Lnr.s:3666   .debug_loc:0000000000000428 .LLST9
     /tmp/cc6B0Lnr.s:505    .text:00000000000001f0 .LVL32
     /tmp/cc6B0Lnr.s:529    .text:000000000000021c .LVL35
     /tmp/cc6B0Lnr.s:3799   .debug_str:0000000000000028 .LASF75
     /tmp/cc6B0Lnr.s:333    .text:0000000000000128 .LFB26
     /tmp/cc6B0Lnr.s:357    .text:0000000000000150 .LFE26
     /tmp/cc6B0Lnr.s:3712   .debug_loc:00000000000004db .LLST5
     /tmp/cc6B0Lnr.s:347    .text:0000000000000140 .LVL20
     /tmp/cc6B0Lnr.s:3987   .debug_str:0000000000000607 .LASF76
     /tmp/cc6B0Lnr.s:62     .text:0000000000000000 .LFB24
     /tmp/cc6B0Lnr.s:81     .text:0000000000000018 .LFE24
     /tmp/cc6B0Lnr.s:3879   .debug_str:00000000000002b9 .LASF77
     /tmp/cc6B0Lnr.s:442    .text:0000000000000190 .LFB21
     /tmp/cc6B0Lnr.s:468    .text:00000000000001c0 .LFE21
     /tmp/cc6B0Lnr.s:3981   .debug_str:00000000000005cf .LASF78
     /tmp/cc6B0Lnr.s:4027   .debug_str:00000000000007e3 .LASF79
     /tmp/cc6B0Lnr.s:301    .text:0000000000000100 .LFB19
     /tmp/cc6B0Lnr.s:327    .text:0000000000000128 .LFE19
     /tmp/cc6B0Lnr.s:3815   .debug_str:00000000000000ac .LASF80
     /tmp/cc6B0Lnr.s:3726   .debug_loc:0000000000000514 .LLST4
     /tmp/cc6B0Lnr.s:316    .text:0000000000000118 .LVL18
     /tmp/cc6B0Lnr.s:4013   .debug_str:0000000000000777 .LASF81
     /tmp/cc6B0Lnr.s:3903   .debug_str:0000000000000374 .LASF82
     /tmp/cc6B0Lnr.s:269    .text:00000000000000d8 .LFB18
     /tmp/cc6B0Lnr.s:295    .text:0000000000000100 .LFE18
     /tmp/cc6B0Lnr.s:3740   .debug_loc:000000000000054d .LLST3
     /tmp/cc6B0Lnr.s:284    .text:00000000000000f0 .LVL16
     /tmp/cc6B0Lnr.s:37     .text._ZN14PeriodicThread18periodicActivationEv:0000000000000000 .LFB17
     /tmp/cc6B0Lnr.s:55     .text._ZN14PeriodicThread18periodicActivationEv:0000000000000018 .LFE17
     /tmp/cc6B0Lnr.s:11     .text._ZN6Thread3runEv:0000000000000000 .LFB16
     /tmp/cc6B0Lnr.s:30     .text._ZN6Thread3runEv:0000000000000018 .LFE16
     /tmp/cc6B0Lnr.s:3861   .debug_str:000000000000021d .LASF83
     /tmp/cc6B0Lnr.s:3973   .debug_str:00000000000005a0 .LASF84
     /tmp/cc6B0Lnr.s:4017   .debug_str:000000000000079f .LASF86
     /tmp/cc6B0Lnr.s:3969   .debug_str:000000000000057f .LASF87
GAS LISTING /tmp/cc6B0Lnr.s 			page 33


     /tmp/cc6B0Lnr.s:3911   .debug_str:00000000000003a6 .LASF88
     /tmp/cc6B0Lnr.s:4001   .debug_str:0000000000000733 .LASF89
     /tmp/cc6B0Lnr.s:3833   .debug_str:0000000000000140 .LASF90
     /tmp/cc6B0Lnr.s:3851   .debug_str:00000000000001de .LASF91
     /tmp/cc6B0Lnr.s:3925   .debug_str:000000000000041b .LASF92
     /tmp/cc6B0Lnr.s:4003   .debug_str:000000000000073f .LASF93
     /tmp/cc6B0Lnr.s:3997   .debug_str:0000000000000713 .LASF94
     /tmp/cc6B0Lnr.s:3827   .debug_str:00000000000000ff .LASF95
     /tmp/cc6B0Lnr.s:3835   .debug_str:0000000000000160 .LASF96
     /tmp/cc6B0Lnr.s:3893   .debug_str:0000000000000323 .LASF97
     /tmp/cc6B0Lnr.s:3845   .debug_str:00000000000001b4 .LASF98
     /tmp/cc6B0Lnr.s:3853   .debug_str:00000000000001ec .LASF99
     /tmp/cc6B0Lnr.s:3955   .debug_str:0000000000000516 .LASF100
     /tmp/cc6B0Lnr.s:3901   .debug_str:0000000000000364 .LASF101
     /tmp/cc6B0Lnr.s:3937   .debug_str:000000000000047d .LASF102
     /tmp/cc6B0Lnr.s:3839   .debug_str:0000000000000190 .LASF103
     /tmp/cc6B0Lnr.s:3947   .debug_str:00000000000004cc .LASF104
     /tmp/cc6B0Lnr.s:3847   .debug_str:00000000000001cf .LASF105
     /tmp/cc6B0Lnr.s:3831   .debug_str:0000000000000132 .LASF106
     /tmp/cc6B0Lnr.s:3977   .debug_str:00000000000005bb .LASF107
     /tmp/cc6B0Lnr.s:406    .text._ZN14PeriodicThreadD0Ev:0000000000000000 .LVL25
     /tmp/cc6B0Lnr.s:415    .text._ZN14PeriodicThreadD0Ev:0000000000000010 .LVL26
     /tmp/cc6B0Lnr.s:421    .text._ZN14PeriodicThreadD0Ev:000000000000001c .LVL27
     /tmp/cc6B0Lnr.s:935    .text:0000000000000428 .LVL63
     /tmp/cc6B0Lnr.s:165    .text:000000000000004c .LVL7
     /tmp/cc6B0Lnr.s:177    .text:0000000000000064 .LVL8
     /tmp/cc6B0Lnr.s:207    .text:0000000000000098 .LVL11
     /tmp/cc6B0Lnr.s:854    .text:00000000000003b0 .LVL58
     /tmp/cc6B0Lnr.s:885    .text:00000000000003f4 .LVL60
     /tmp/cc6B0Lnr.s:888    .text:00000000000003f8 .LVL61
     /tmp/cc6B0Lnr.s:793    .text:0000000000000368 .LVL54
     /tmp/cc6B0Lnr.s:805    .text:000000000000037c .LVL55
     /tmp/cc6B0Lnr.s:759    .text:000000000000033c .LVL51
     /tmp/cc6B0Lnr.s:771    .text:0000000000000350 .LVL52
     /tmp/cc6B0Lnr.s:725    .text:0000000000000310 .LVL48
     /tmp/cc6B0Lnr.s:737    .text:0000000000000324 .LVL49
     /tmp/cc6B0Lnr.s:691    .text:00000000000002e4 .LVL45
     /tmp/cc6B0Lnr.s:703    .text:00000000000002f8 .LVL46
     /tmp/cc6B0Lnr.s:366    .text:0000000000000150 .LVL21
     /tmp/cc6B0Lnr.s:391    .text:0000000000000188 .LVL24
     /tmp/cc6B0Lnr.s:223    .text:00000000000000a0 .LVL12
     /tmp/cc6B0Lnr.s:239    .text:00000000000000c0 .LVL13
     /tmp/cc6B0Lnr.s:650    .text:00000000000002ac .LVL42
     /tmp/cc6B0Lnr.s:666    .text:00000000000002cc .LVL43
     /tmp/cc6B0Lnr.s:92     .text:0000000000000018 .LVL3
     /tmp/cc6B0Lnr.s:120    .text:0000000000000048 .LVL5
     /tmp/cc6B0Lnr.s:553    .text:000000000000022c .LVL38
     /tmp/cc6B0Lnr.s:479    .text:00000000000001c0 .LVL30
     /tmp/cc6B0Lnr.s:503    .text:00000000000001e8 .LVL31
     /tmp/cc6B0Lnr.s:519    .text:0000000000000204 .LVL33
     /tmp/cc6B0Lnr.s:527    .text:0000000000000214 .LVL34
     /tmp/cc6B0Lnr.s:533    .text:0000000000000224 .LVL36
     /tmp/cc6B0Lnr.s:540    .text:0000000000000228 .LVL37
     /tmp/cc6B0Lnr.s:336    .text:0000000000000128 .LVL19
     /tmp/cc6B0Lnr.s:304    .text:0000000000000100 .LVL17
     /tmp/cc6B0Lnr.s:272    .text:00000000000000d8 .LVL15
     /tmp/cc6B0Lnr.s:998    .debug_info:0000000000000000 .Ldebug_info0
GAS LISTING /tmp/cc6B0Lnr.s 			page 34


     /tmp/cc6B0Lnr.s:5      .text:0000000000000000 .Ltext0
     /tmp/cc6B0Lnr.s:994    .text:0000000000000450 .Letext0
     /tmp/cc6B0Lnr.s:256    .gcc_except_table:0000000000000000 .LLSDA38
                           .group:0000000000000000 _ZN14PeriodicThreadD5Ev

UNDEFINED SYMBOLS
_Z10time_sleepm
_Z9sem_closeP10kSemaphore
__gxx_personality_v0
_Z9mem_allocm
_Z8mem_freePv
_Z13thread_createPP3TCBPFvPvES2_
_Z15thread_dispatchv
_Z8sem_openPP10kSemaphorej
_Z8sem_waitP10kSemaphore
_Z10sem_signalP10kSemaphore
_Z13sem_timedwaitP10kSemaphorem
_Z11sem_trywaitP10kSemaphore
_Z4getcv
_Z4putcc
